ARM GAS  /tmp/cconxs1Q.s 			page 1


   1              		.cpu cortex-m4
   2              		.eabi_attribute 27, 1
   3              		.eabi_attribute 28, 1
   4              		.eabi_attribute 20, 1
   5              		.eabi_attribute 21, 1
   6              		.eabi_attribute 23, 3
   7              		.eabi_attribute 24, 1
   8              		.eabi_attribute 25, 1
   9              		.eabi_attribute 26, 1
  10              		.eabi_attribute 30, 1
  11              		.eabi_attribute 34, 1
  12              		.eabi_attribute 18, 4
  13              		.file	"flash_writer.c"
  14              		.text
  15              	.Ltext0:
  16              		.cfi_sections	.debug_frame
  17              		.section	.text.flash_writer_init,"ax",%progbits
  18              		.align	1
  19              		.global	flash_writer_init
  20              		.arch armv7e-m
  21              		.syntax unified
  22              		.thumb
  23              		.thumb_func
  24              		.fpu fpv4-sp-d16
  26              	flash_writer_init:
  27              	.LVL0:
  28              	.LFB235:
  29              		.file 1 "Core/Src/flash_writer.c"
   1:Core/Src/flash_writer.c **** #include "stm32f4xx_flash.h"
   2:Core/Src/flash_writer.c **** #include "flash_writer.h"
   3:Core/Src/flash_writer.c **** 
   4:Core/Src/flash_writer.c **** 
   5:Core/Src/flash_writer.c **** 
   6:Core/Src/flash_writer.c **** 
   7:Core/Src/flash_writer.c **** void flash_writer_init(FlashWriter *fw, uint32_t sector) {
  30              		.loc 1 7 58 view -0
  31              		.cfi_startproc
  32              		@ args = 0, pretend = 0, frame = 0
  33              		@ frame_needed = 0, uses_anonymous_args = 0
  34              		@ link register save eliminated.
   8:Core/Src/flash_writer.c **** 	if(sector>7) sector = 7;
  35              		.loc 1 8 2 view .LVU1
  36              		.loc 1 8 4 is_stmt 0 view .LVU2
  37 0000 0729     		cmp	r1, #7
  38 0002 00D9     		bls	.L2
  39              		.loc 1 8 22 view .LVU3
  40 0004 0721     		movs	r1, #7
  41              	.LVL1:
  42              	.L2:
   9:Core/Src/flash_writer.c **** 	fw->sector = sector;
  43              		.loc 1 9 2 is_stmt 1 view .LVU4
  44              		.loc 1 9 13 is_stmt 0 view .LVU5
  45 0006 8160     		str	r1, [r0, #8]
  10:Core/Src/flash_writer.c **** 	fw->base = __SECTOR_ADDRS[sector];
  46              		.loc 1 10 2 is_stmt 1 view .LVU6
  47              		.loc 1 10 27 is_stmt 0 view .LVU7
  48 0008 034B     		ldr	r3, .L4
ARM GAS  /tmp/cconxs1Q.s 			page 2


  49 000a 53F82130 		ldr	r3, [r3, r1, lsl #2]
  50              		.loc 1 10 11 view .LVU8
  51 000e 4360     		str	r3, [r0, #4]
  11:Core/Src/flash_writer.c **** 	fw->ready = false;
  52              		.loc 1 11 2 is_stmt 1 view .LVU9
  53              		.loc 1 11 12 is_stmt 0 view .LVU10
  54 0010 0023     		movs	r3, #0
  55 0012 0370     		strb	r3, [r0]
  12:Core/Src/flash_writer.c **** }
  56              		.loc 1 12 1 view .LVU11
  57 0014 7047     		bx	lr
  58              	.L5:
  59 0016 00BF     		.align	2
  60              	.L4:
  61 0018 00000000 		.word	.LANCHOR0
  62              		.cfi_endproc
  63              	.LFE235:
  65              		.section	.text.flash_writer_ready,"ax",%progbits
  66              		.align	1
  67              		.global	flash_writer_ready
  68              		.syntax unified
  69              		.thumb
  70              		.thumb_func
  71              		.fpu fpv4-sp-d16
  73              	flash_writer_ready:
  74              	.LFB236:
  13:Core/Src/flash_writer.c **** bool flash_writer_ready(FlashWriter fw) {
  75              		.loc 1 13 41 is_stmt 1 view -0
  76              		.cfi_startproc
  77              		@ args = 0, pretend = 0, frame = 16
  78              		@ frame_needed = 0, uses_anonymous_args = 0
  79              		@ link register save eliminated.
  80 0000 84B0     		sub	sp, sp, #16
  81              	.LCFI0:
  82              		.cfi_def_cfa_offset 16
  83 0002 04AB     		add	r3, sp, #16
  84 0004 03E90700 		stmdb	r3, {r0, r1, r2}
  14:Core/Src/flash_writer.c ****     return fw.ready;
  85              		.loc 1 14 5 view .LVU13
  15:Core/Src/flash_writer.c **** }
  86              		.loc 1 15 1 is_stmt 0 view .LVU14
  87 0008 9DF80400 		ldrb	r0, [sp, #4]	@ zero_extendqisi2
  88 000c 04B0     		add	sp, sp, #16
  89              	.LCFI1:
  90              		.cfi_def_cfa_offset 0
  91              		@ sp needed
  92 000e 7047     		bx	lr
  93              		.cfi_endproc
  94              	.LFE236:
  96              		.section	.text.flash_writer_open,"ax",%progbits
  97              		.align	1
  98              		.global	flash_writer_open
  99              		.syntax unified
 100              		.thumb
 101              		.thumb_func
 102              		.fpu fpv4-sp-d16
 104              	flash_writer_open:
ARM GAS  /tmp/cconxs1Q.s 			page 3


 105              	.LVL2:
 106              	.LFB237:
  16:Core/Src/flash_writer.c **** 
  17:Core/Src/flash_writer.c **** void flash_writer_open(FlashWriter * fw) {
 107              		.loc 1 17 42 is_stmt 1 view -0
 108              		.cfi_startproc
 109              		@ args = 0, pretend = 0, frame = 0
 110              		@ frame_needed = 0, uses_anonymous_args = 0
 111              		.loc 1 17 42 is_stmt 0 view .LVU16
 112 0000 10B5     		push	{r4, lr}
 113              	.LCFI2:
 114              		.cfi_def_cfa_offset 8
 115              		.cfi_offset 4, -8
 116              		.cfi_offset 14, -4
 117 0002 0446     		mov	r4, r0
  18:Core/Src/flash_writer.c ****     FLASH_Unlock();
 118              		.loc 1 18 5 is_stmt 1 view .LVU17
 119 0004 FFF7FEFF 		bl	FLASH_Unlock
 120              	.LVL3:
  19:Core/Src/flash_writer.c ****     FLASH_ClearFlag( FLASH_FLAG_EOP |  FLASH_FLAG_WRPERR | FLASH_FLAG_PGAERR | FLASH_FLAG_PGPERR | 
 121              		.loc 1 19 5 view .LVU18
 122 0008 F120     		movs	r0, #241
 123 000a FFF7FEFF 		bl	FLASH_ClearFlag
 124              	.LVL4:
  20:Core/Src/flash_writer.c ****     FLASH_EraseSector(__SECTORS[fw->sector], VoltageRange_3);
 125              		.loc 1 20 5 view .LVU19
 126              		.loc 1 20 35 is_stmt 0 view .LVU20
 127 000e A268     		ldr	r2, [r4, #8]
 128              		.loc 1 20 5 view .LVU21
 129 0010 0221     		movs	r1, #2
 130 0012 044B     		ldr	r3, .L10
 131 0014 53F82200 		ldr	r0, [r3, r2, lsl #2]
 132 0018 FFF7FEFF 		bl	FLASH_EraseSector
 133              	.LVL5:
  21:Core/Src/flash_writer.c ****     fw->ready = true;
 134              		.loc 1 21 5 is_stmt 1 view .LVU22
 135              		.loc 1 21 15 is_stmt 0 view .LVU23
 136 001c 0123     		movs	r3, #1
 137 001e 2370     		strb	r3, [r4]
  22:Core/Src/flash_writer.c **** }
 138              		.loc 1 22 1 view .LVU24
 139 0020 10BD     		pop	{r4, pc}
 140              	.LVL6:
 141              	.L11:
 142              		.loc 1 22 1 view .LVU25
 143 0022 00BF     		.align	2
 144              	.L10:
 145 0024 00000000 		.word	.LANCHOR1
 146              		.cfi_endproc
 147              	.LFE237:
 149              		.section	.text.flash_writer_write_int,"ax",%progbits
 150              		.align	1
 151              		.global	flash_writer_write_int
 152              		.syntax unified
 153              		.thumb
 154              		.thumb_func
 155              		.fpu fpv4-sp-d16
ARM GAS  /tmp/cconxs1Q.s 			page 4


 157              	flash_writer_write_int:
 158              	.LVL7:
 159              	.LFB238:
  23:Core/Src/flash_writer.c **** 
  24:Core/Src/flash_writer.c **** void flash_writer_write_int(FlashWriter fw, uint32_t index, int x) {
 160              		.loc 1 24 68 is_stmt 1 view -0
 161              		.cfi_startproc
 162              		@ args = 4, pretend = 0, frame = 16
 163              		@ frame_needed = 0, uses_anonymous_args = 0
 164              		.loc 1 24 68 is_stmt 0 view .LVU27
 165 0000 00B5     		push	{lr}
 166              	.LCFI3:
 167              		.cfi_def_cfa_offset 4
 168              		.cfi_offset 14, -4
 169 0002 85B0     		sub	sp, sp, #20
 170              	.LCFI4:
 171              		.cfi_def_cfa_offset 24
 172 0004 0DF1100C 		add	ip, sp, #16
 173 0008 0CE90700 		stmdb	ip, {r0, r1, r2}
  25:Core/Src/flash_writer.c ****     union UN {int a; uint32_t b;};
 174              		.loc 1 25 5 is_stmt 1 view .LVU28
  26:Core/Src/flash_writer.c ****     union UN un;
 175              		.loc 1 26 5 view .LVU29
  27:Core/Src/flash_writer.c ****     un.a = x;
 176              		.loc 1 27 5 view .LVU30
  28:Core/Src/flash_writer.c ****     FLASH_ProgramWord(fw.base + 4 * index, un.b);
 177              		.loc 1 28 5 view .LVU31
 178 000c 0699     		ldr	r1, [sp, #24]
 179 000e 0298     		ldr	r0, [sp, #8]
 180 0010 00EB8300 		add	r0, r0, r3, lsl #2
 181 0014 FFF7FEFF 		bl	FLASH_ProgramWord
 182              	.LVL8:
  29:Core/Src/flash_writer.c **** }
 183              		.loc 1 29 1 is_stmt 0 view .LVU32
 184 0018 05B0     		add	sp, sp, #20
 185              	.LCFI5:
 186              		.cfi_def_cfa_offset 4
 187              		@ sp needed
 188 001a 5DF804FB 		ldr	pc, [sp], #4
 189              		.loc 1 29 1 view .LVU33
 190              		.cfi_endproc
 191              	.LFE238:
 193              		.section	.text.flash_writer_write_uint,"ax",%progbits
 194              		.align	1
 195              		.global	flash_writer_write_uint
 196              		.syntax unified
 197              		.thumb
 198              		.thumb_func
 199              		.fpu fpv4-sp-d16
 201              	flash_writer_write_uint:
 202              	.LVL9:
 203              	.LFB239:
  30:Core/Src/flash_writer.c **** 
  31:Core/Src/flash_writer.c **** void flash_writer_write_uint(FlashWriter fw, uint32_t index, unsigned int x) {
 204              		.loc 1 31 78 is_stmt 1 view -0
 205              		.cfi_startproc
 206              		@ args = 4, pretend = 0, frame = 16
ARM GAS  /tmp/cconxs1Q.s 			page 5


 207              		@ frame_needed = 0, uses_anonymous_args = 0
 208              		.loc 1 31 78 is_stmt 0 view .LVU35
 209 0000 00B5     		push	{lr}
 210              	.LCFI6:
 211              		.cfi_def_cfa_offset 4
 212              		.cfi_offset 14, -4
 213 0002 85B0     		sub	sp, sp, #20
 214              	.LCFI7:
 215              		.cfi_def_cfa_offset 24
 216 0004 0DF1100C 		add	ip, sp, #16
 217 0008 0CE90700 		stmdb	ip, {r0, r1, r2}
  32:Core/Src/flash_writer.c ****     FLASH_ProgramWord(fw.base + 4 * index, x);
 218              		.loc 1 32 5 is_stmt 1 view .LVU36
 219 000c 0699     		ldr	r1, [sp, #24]
 220 000e 0298     		ldr	r0, [sp, #8]
 221 0010 00EB8300 		add	r0, r0, r3, lsl #2
 222 0014 FFF7FEFF 		bl	FLASH_ProgramWord
 223              	.LVL10:
  33:Core/Src/flash_writer.c **** }
 224              		.loc 1 33 1 is_stmt 0 view .LVU37
 225 0018 05B0     		add	sp, sp, #20
 226              	.LCFI8:
 227              		.cfi_def_cfa_offset 4
 228              		@ sp needed
 229 001a 5DF804FB 		ldr	pc, [sp], #4
 230              		.loc 1 33 1 view .LVU38
 231              		.cfi_endproc
 232              	.LFE239:
 234              		.section	.text.flash_writer_write_float,"ax",%progbits
 235              		.align	1
 236              		.global	flash_writer_write_float
 237              		.syntax unified
 238              		.thumb
 239              		.thumb_func
 240              		.fpu fpv4-sp-d16
 242              	flash_writer_write_float:
 243              	.LVL11:
 244              	.LFB240:
  34:Core/Src/flash_writer.c **** 
  35:Core/Src/flash_writer.c **** void flash_writer_write_float(FlashWriter fw, uint32_t index, float x) {
 245              		.loc 1 35 72 is_stmt 1 view -0
 246              		.cfi_startproc
 247              		@ args = 0, pretend = 0, frame = 16
 248              		@ frame_needed = 0, uses_anonymous_args = 0
 249              		.loc 1 35 72 is_stmt 0 view .LVU40
 250 0000 00B5     		push	{lr}
 251              	.LCFI9:
 252              		.cfi_def_cfa_offset 4
 253              		.cfi_offset 14, -4
 254 0002 85B0     		sub	sp, sp, #20
 255              	.LCFI10:
 256              		.cfi_def_cfa_offset 24
 257 0004 0DF1100C 		add	ip, sp, #16
 258 0008 0CE90700 		stmdb	ip, {r0, r1, r2}
  36:Core/Src/flash_writer.c ****     union UN {float a; uint32_t b;};
 259              		.loc 1 36 5 is_stmt 1 view .LVU41
  37:Core/Src/flash_writer.c ****     union UN un;
ARM GAS  /tmp/cconxs1Q.s 			page 6


 260              		.loc 1 37 5 view .LVU42
  38:Core/Src/flash_writer.c ****     un.a = x;
 261              		.loc 1 38 5 view .LVU43
  39:Core/Src/flash_writer.c ****     FLASH_ProgramWord(fw.base + 4 * index, un.b);
 262              		.loc 1 39 5 view .LVU44
 263 000c 10EE101A 		vmov	r1, s0	@ int
 264 0010 0298     		ldr	r0, [sp, #8]
 265 0012 00EB8300 		add	r0, r0, r3, lsl #2
 266 0016 FFF7FEFF 		bl	FLASH_ProgramWord
 267              	.LVL12:
  40:Core/Src/flash_writer.c **** }
 268              		.loc 1 40 1 is_stmt 0 view .LVU45
 269 001a 05B0     		add	sp, sp, #20
 270              	.LCFI11:
 271              		.cfi_def_cfa_offset 4
 272              		@ sp needed
 273 001c 5DF804FB 		ldr	pc, [sp], #4
 274              		.cfi_endproc
 275              	.LFE240:
 277              		.section	.text.flash_writer_close,"ax",%progbits
 278              		.align	1
 279              		.global	flash_writer_close
 280              		.syntax unified
 281              		.thumb
 282              		.thumb_func
 283              		.fpu fpv4-sp-d16
 285              	flash_writer_close:
 286              	.LVL13:
 287              	.LFB241:
  41:Core/Src/flash_writer.c **** 
  42:Core/Src/flash_writer.c **** void flash_writer_close(FlashWriter * fw) {
 288              		.loc 1 42 43 is_stmt 1 view -0
 289              		.cfi_startproc
 290              		@ args = 0, pretend = 0, frame = 0
 291              		@ frame_needed = 0, uses_anonymous_args = 0
 292              		.loc 1 42 43 is_stmt 0 view .LVU47
 293 0000 10B5     		push	{r4, lr}
 294              	.LCFI12:
 295              		.cfi_def_cfa_offset 8
 296              		.cfi_offset 4, -8
 297              		.cfi_offset 14, -4
 298 0002 0446     		mov	r4, r0
  43:Core/Src/flash_writer.c ****     FLASH_Lock();
 299              		.loc 1 43 5 is_stmt 1 view .LVU48
 300 0004 FFF7FEFF 		bl	FLASH_Lock
 301              	.LVL14:
  44:Core/Src/flash_writer.c ****     fw->ready = false;
 302              		.loc 1 44 5 view .LVU49
 303              		.loc 1 44 15 is_stmt 0 view .LVU50
 304 0008 0023     		movs	r3, #0
 305 000a 2370     		strb	r3, [r4]
  45:Core/Src/flash_writer.c **** }
 306              		.loc 1 45 1 view .LVU51
 307 000c 10BD     		pop	{r4, pc}
 308              		.loc 1 45 1 view .LVU52
 309              		.cfi_endproc
 310              	.LFE241:
ARM GAS  /tmp/cconxs1Q.s 			page 7


 312              		.section	.text.flash_read_int,"ax",%progbits
 313              		.align	1
 314              		.global	flash_read_int
 315              		.syntax unified
 316              		.thumb
 317              		.thumb_func
 318              		.fpu fpv4-sp-d16
 320              	flash_read_int:
 321              	.LVL15:
 322              	.LFB242:
  46:Core/Src/flash_writer.c **** 
  47:Core/Src/flash_writer.c **** int flash_read_int(FlashWriter fw, uint32_t index) {
 323              		.loc 1 47 52 is_stmt 1 view -0
 324              		.cfi_startproc
 325              		@ args = 0, pretend = 0, frame = 16
 326              		@ frame_needed = 0, uses_anonymous_args = 0
 327              		@ link register save eliminated.
 328              		.loc 1 47 52 is_stmt 0 view .LVU54
 329 0000 84B0     		sub	sp, sp, #16
 330              	.LCFI13:
 331              		.cfi_def_cfa_offset 16
 332 0002 0DF1100C 		add	ip, sp, #16
 333 0006 0CE90700 		stmdb	ip, {r0, r1, r2}
  48:Core/Src/flash_writer.c ****     return *(int*) (__SECTOR_ADDRS[fw.sector] + 4 * index);
 334              		.loc 1 48 5 is_stmt 1 view .LVU55
 335              		.loc 1 48 35 is_stmt 0 view .LVU56
 336 000a 0399     		ldr	r1, [sp, #12]
 337 000c 034A     		ldr	r2, .L22
 338 000e 52F82120 		ldr	r2, [r2, r1, lsl #2]
  49:Core/Src/flash_writer.c **** }
 339              		.loc 1 49 1 view .LVU57
 340 0012 52F82300 		ldr	r0, [r2, r3, lsl #2]
 341 0016 04B0     		add	sp, sp, #16
 342              	.LCFI14:
 343              		.cfi_def_cfa_offset 0
 344              		@ sp needed
 345 0018 7047     		bx	lr
 346              	.L23:
 347 001a 00BF     		.align	2
 348              	.L22:
 349 001c 00000000 		.word	.LANCHOR0
 350              		.cfi_endproc
 351              	.LFE242:
 353              		.section	.text.flash_read_uint,"ax",%progbits
 354              		.align	1
 355              		.global	flash_read_uint
 356              		.syntax unified
 357              		.thumb
 358              		.thumb_func
 359              		.fpu fpv4-sp-d16
 361              	flash_read_uint:
 362              	.LVL16:
 363              	.LFB243:
  50:Core/Src/flash_writer.c **** 
  51:Core/Src/flash_writer.c **** uint32_t flash_read_uint(FlashWriter fw, uint32_t index) {
 364              		.loc 1 51 58 is_stmt 1 view -0
 365              		.cfi_startproc
ARM GAS  /tmp/cconxs1Q.s 			page 8


 366              		@ args = 0, pretend = 0, frame = 16
 367              		@ frame_needed = 0, uses_anonymous_args = 0
 368              		@ link register save eliminated.
 369              		.loc 1 51 58 is_stmt 0 view .LVU59
 370 0000 84B0     		sub	sp, sp, #16
 371              	.LCFI15:
 372              		.cfi_def_cfa_offset 16
 373 0002 0DF1100C 		add	ip, sp, #16
 374 0006 0CE90700 		stmdb	ip, {r0, r1, r2}
  52:Core/Src/flash_writer.c ****     return *(uint32_t*) (__SECTOR_ADDRS[fw.sector] + 4 * index);
 375              		.loc 1 52 5 is_stmt 1 view .LVU60
 376              		.loc 1 52 40 is_stmt 0 view .LVU61
 377 000a 0399     		ldr	r1, [sp, #12]
 378 000c 034A     		ldr	r2, .L26
 379 000e 52F82120 		ldr	r2, [r2, r1, lsl #2]
  53:Core/Src/flash_writer.c **** }
 380              		.loc 1 53 1 view .LVU62
 381 0012 52F82300 		ldr	r0, [r2, r3, lsl #2]
 382 0016 04B0     		add	sp, sp, #16
 383              	.LCFI16:
 384              		.cfi_def_cfa_offset 0
 385              		@ sp needed
 386 0018 7047     		bx	lr
 387              	.L27:
 388 001a 00BF     		.align	2
 389              	.L26:
 390 001c 00000000 		.word	.LANCHOR0
 391              		.cfi_endproc
 392              	.LFE243:
 394              		.section	.text.flash_read_float,"ax",%progbits
 395              		.align	1
 396              		.global	flash_read_float
 397              		.syntax unified
 398              		.thumb
 399              		.thumb_func
 400              		.fpu fpv4-sp-d16
 402              	flash_read_float:
 403              	.LVL17:
 404              	.LFB244:
  54:Core/Src/flash_writer.c **** 
  55:Core/Src/flash_writer.c **** float flash_read_float(FlashWriter fw, uint32_t index) {
 405              		.loc 1 55 56 is_stmt 1 view -0
 406              		.cfi_startproc
 407              		@ args = 0, pretend = 0, frame = 16
 408              		@ frame_needed = 0, uses_anonymous_args = 0
 409              		@ link register save eliminated.
 410              		.loc 1 55 56 is_stmt 0 view .LVU64
 411 0000 84B0     		sub	sp, sp, #16
 412              	.LCFI17:
 413              		.cfi_def_cfa_offset 16
 414 0002 0DF1100C 		add	ip, sp, #16
 415 0006 0CE90700 		stmdb	ip, {r0, r1, r2}
  56:Core/Src/flash_writer.c ****     return *(float*) (__SECTOR_ADDRS[fw.sector] + 4 * index);
 416              		.loc 1 56 5 is_stmt 1 view .LVU65
 417              		.loc 1 56 37 is_stmt 0 view .LVU66
 418 000a 0399     		ldr	r1, [sp, #12]
 419 000c 044A     		ldr	r2, .L30
ARM GAS  /tmp/cconxs1Q.s 			page 9


 420 000e 52F82120 		ldr	r2, [r2, r1, lsl #2]
 421              		.loc 1 56 49 view .LVU67
 422 0012 02EB8302 		add	r2, r2, r3, lsl #2
  57:Core/Src/flash_writer.c **** }
 423              		.loc 1 57 1 view .LVU68
 424 0016 92ED000A 		vldr.32	s0, [r2]
 425 001a 04B0     		add	sp, sp, #16
 426              	.LCFI18:
 427              		.cfi_def_cfa_offset 0
 428              		@ sp needed
 429 001c 7047     		bx	lr
 430              	.L31:
 431 001e 00BF     		.align	2
 432              	.L30:
 433 0020 00000000 		.word	.LANCHOR0
 434              		.cfi_endproc
 435              	.LFE244:
 437              		.section	.rodata.__SECTORS,"a"
 438              		.align	2
 439              		.set	.LANCHOR1,. + 0
 442              	__SECTORS:
 443 0000 00000000 		.word	0
 444 0004 08000000 		.word	8
 445 0008 10000000 		.word	16
 446 000c 18000000 		.word	24
 447 0010 20000000 		.word	32
 448 0014 30000000 		.word	48
 449 0018 30000000 		.word	48
 450 001c 38000000 		.word	56
 451              		.section	.rodata.__SECTOR_ADDRS,"a"
 452              		.align	2
 453              		.set	.LANCHOR0,. + 0
 456              	__SECTOR_ADDRS:
 457 0000 00000008 		.word	134217728
 458 0004 00400008 		.word	134234112
 459 0008 00800008 		.word	134250496
 460 000c 00C00008 		.word	134266880
 461 0010 00000108 		.word	134283264
 462 0014 00000208 		.word	134348800
 463 0018 00000408 		.word	134479872
 464 001c 00000608 		.word	134610944
 465              		.text
 466              	.Letext0:
 467              		.file 2 "/usr/lib/gcc/arm-none-eabi/9.2.1/include/stdint.h"
 468              		.file 3 "Drivers/CMSIS/Include/core_cm4.h"
 469              		.file 4 "Drivers/CMSIS/Device/ST/STM32F4xx/Include/system_stm32f4xx.h"
 470              		.file 5 "Drivers/STM32F4xx_HAL_Driver/Inc/stm32f4xx_hal.h"
 471              		.file 6 "Core/Inc/flash_writer.h"
 472              		.file 7 "Core/Inc/stm32f4xx_flash.h"
ARM GAS  /tmp/cconxs1Q.s 			page 10

