ARM GAS  /tmp/ccai17pm.s 			page 1


   1              		.cpu cortex-m4
   2              		.eabi_attribute 27, 1
   3              		.eabi_attribute 28, 1
   4              		.eabi_attribute 20, 1
   5              		.eabi_attribute 21, 1
   6              		.eabi_attribute 23, 3
   7              		.eabi_attribute 24, 1
   8              		.eabi_attribute 25, 1
   9              		.eabi_attribute 26, 1
  10              		.eabi_attribute 30, 1
  11              		.eabi_attribute 34, 1
  12              		.eabi_attribute 18, 4
  13              		.file	"math_ops.c"
  14              		.text
  15              	.Ltext0:
  16              		.cfi_sections	.debug_frame
  17              		.section	.text.fast_fmaxf,"ax",%progbits
  18              		.align	1
  19              		.global	fast_fmaxf
  20              		.arch armv7e-m
  21              		.syntax unified
  22              		.thumb
  23              		.thumb_func
  24              		.fpu fpv4-sp-d16
  26              	fast_fmaxf:
  27              	.LVL0:
  28              	.LFB0:
  29              		.file 1 "Core/Src/math_ops.c"
   1:Core/Src/math_ops.c **** 
   2:Core/Src/math_ops.c **** #include "math_ops.h"
   3:Core/Src/math_ops.c **** #include "lookup.h"
   4:Core/Src/math_ops.c **** 
   5:Core/Src/math_ops.c **** 
   6:Core/Src/math_ops.c **** float fast_fmaxf(float x, float y){
  30              		.loc 1 6 35 view -0
  31              		.cfi_startproc
  32              		@ args = 0, pretend = 0, frame = 0
  33              		@ frame_needed = 0, uses_anonymous_args = 0
  34              		@ link register save eliminated.
  35              		.loc 1 6 35 is_stmt 0 view .LVU1
  36 0000 F0EE407A 		vmov.f32	s15, s0
  37 0004 B0EE600A 		vmov.f32	s0, s1
  38              	.LVL1:
   7:Core/Src/math_ops.c ****     /// Returns maximum of x, y ///
   8:Core/Src/math_ops.c ****     return (((x)>(y))?(x):(y));
  39              		.loc 1 8 5 is_stmt 1 view .LVU2
  40              		.loc 1 8 26 is_stmt 0 view .LVU3
  41 0008 F4EEE07A 		vcmpe.f32	s15, s1
  42 000c F1EE10FA 		vmrs	APSR_nzcv, FPSCR
  43 0010 01DD     		ble	.L2
  44 0012 B0EE670A 		vmov.f32	s0, s15
  45              	.L2:
   9:Core/Src/math_ops.c ****     }
  46              		.loc 1 9 5 discriminator 4 view .LVU4
  47 0016 7047     		bx	lr
  48              		.cfi_endproc
  49              	.LFE0:
ARM GAS  /tmp/ccai17pm.s 			page 2


  51              		.section	.text.fast_fminf,"ax",%progbits
  52              		.align	1
  53              		.global	fast_fminf
  54              		.syntax unified
  55              		.thumb
  56              		.thumb_func
  57              		.fpu fpv4-sp-d16
  59              	fast_fminf:
  60              	.LVL2:
  61              	.LFB1:
  10:Core/Src/math_ops.c **** 
  11:Core/Src/math_ops.c **** float fast_fminf(float x, float y){
  62              		.loc 1 11 35 is_stmt 1 view -0
  63              		.cfi_startproc
  64              		@ args = 0, pretend = 0, frame = 0
  65              		@ frame_needed = 0, uses_anonymous_args = 0
  66              		@ link register save eliminated.
  67              		.loc 1 11 35 is_stmt 0 view .LVU6
  68 0000 F0EE407A 		vmov.f32	s15, s0
  69 0004 B0EE600A 		vmov.f32	s0, s1
  70              	.LVL3:
  12:Core/Src/math_ops.c ****     /// Returns minimum of x, y ///
  13:Core/Src/math_ops.c ****     return (((x)<(y))?(x):(y));
  71              		.loc 1 13 5 is_stmt 1 view .LVU7
  72              		.loc 1 13 26 is_stmt 0 view .LVU8
  73 0008 F4EEE07A 		vcmpe.f32	s15, s1
  74 000c F1EE10FA 		vmrs	APSR_nzcv, FPSCR
  75 0010 01D5     		bpl	.L6
  76 0012 B0EE670A 		vmov.f32	s0, s15
  77              	.L6:
  14:Core/Src/math_ops.c ****     }
  78              		.loc 1 14 5 discriminator 4 view .LVU9
  79 0016 7047     		bx	lr
  80              		.cfi_endproc
  81              	.LFE1:
  83              		.section	.text.fmaxf3,"ax",%progbits
  84              		.align	1
  85              		.global	fmaxf3
  86              		.syntax unified
  87              		.thumb
  88              		.thumb_func
  89              		.fpu fpv4-sp-d16
  91              	fmaxf3:
  92              	.LVL4:
  93              	.LFB2:
  15:Core/Src/math_ops.c **** 
  16:Core/Src/math_ops.c **** float fmaxf3(float x, float y, float z){
  94              		.loc 1 16 40 is_stmt 1 view -0
  95              		.cfi_startproc
  96              		@ args = 0, pretend = 0, frame = 0
  97              		@ frame_needed = 0, uses_anonymous_args = 0
  98              		@ link register save eliminated.
  99              		.loc 1 16 40 is_stmt 0 view .LVU11
 100 0000 F0EE407A 		vmov.f32	s15, s0
 101 0004 B0EE410A 		vmov.f32	s0, s2
 102              	.LVL5:
  17:Core/Src/math_ops.c ****     /// Returns maximum of x, y, z ///
ARM GAS  /tmp/ccai17pm.s 			page 3


  18:Core/Src/math_ops.c ****     return (x > y ? (x > z ? x : z) : (y > z ? y : z));
 103              		.loc 1 18 5 is_stmt 1 view .LVU12
 104              		.loc 1 18 37 is_stmt 0 view .LVU13
 105 0008 F4EEE07A 		vcmpe.f32	s15, s1
 106 000c F1EE10FA 		vmrs	APSR_nzcv, FPSCR
 107 0010 07DD     		ble	.L18
 108              		.loc 1 18 32 discriminator 1 view .LVU14
 109 0012 F4EEC17A 		vcmpe.f32	s15, s2
 110 0016 F1EE10FA 		vmrs	APSR_nzcv, FPSCR
 111 001a 09DD     		ble	.L12
 112              		.loc 1 18 32 view .LVU15
 113 001c B0EE670A 		vmov.f32	s0, s15
 114 0020 7047     		bx	lr
 115              	.LVL6:
 116              	.L18:
 117              		.loc 1 18 50 discriminator 2 view .LVU16
 118 0022 F4EEC10A 		vcmpe.f32	s1, s2
 119 0026 F1EE10FA 		vmrs	APSR_nzcv, FPSCR
 120 002a 01DD     		ble	.L12
 121              		.loc 1 18 50 view .LVU17
 122 002c B0EE600A 		vmov.f32	s0, s1
 123              	.LVL7:
 124              	.L12:
  19:Core/Src/math_ops.c ****     }
 125              		.loc 1 19 5 discriminator 12 view .LVU18
 126 0030 7047     		bx	lr
 127              		.cfi_endproc
 128              	.LFE2:
 130              		.section	.text.fminf3,"ax",%progbits
 131              		.align	1
 132              		.global	fminf3
 133              		.syntax unified
 134              		.thumb
 135              		.thumb_func
 136              		.fpu fpv4-sp-d16
 138              	fminf3:
 139              	.LVL8:
 140              	.LFB3:
  20:Core/Src/math_ops.c **** 
  21:Core/Src/math_ops.c **** float fminf3(float x, float y, float z){
 141              		.loc 1 21 40 is_stmt 1 view -0
 142              		.cfi_startproc
 143              		@ args = 0, pretend = 0, frame = 0
 144              		@ frame_needed = 0, uses_anonymous_args = 0
 145              		@ link register save eliminated.
 146              		.loc 1 21 40 is_stmt 0 view .LVU20
 147 0000 F0EE407A 		vmov.f32	s15, s0
 148 0004 B0EE410A 		vmov.f32	s0, s2
 149              	.LVL9:
  22:Core/Src/math_ops.c ****     /// Returns minimum of x, y, z ///
  23:Core/Src/math_ops.c ****     return (x < y ? (x < z ? x : z) : (y < z ? y : z));
 150              		.loc 1 23 5 is_stmt 1 view .LVU21
 151              		.loc 1 23 37 is_stmt 0 view .LVU22
 152 0008 F4EEE07A 		vcmpe.f32	s15, s1
 153 000c F1EE10FA 		vmrs	APSR_nzcv, FPSCR
 154 0010 07D5     		bpl	.L28
 155              		.loc 1 23 32 discriminator 1 view .LVU23
ARM GAS  /tmp/ccai17pm.s 			page 4


 156 0012 F4EEC17A 		vcmpe.f32	s15, s2
 157 0016 F1EE10FA 		vmrs	APSR_nzcv, FPSCR
 158 001a 09D5     		bpl	.L22
 159              		.loc 1 23 32 view .LVU24
 160 001c B0EE670A 		vmov.f32	s0, s15
 161 0020 7047     		bx	lr
 162              	.LVL10:
 163              	.L28:
 164              		.loc 1 23 50 discriminator 2 view .LVU25
 165 0022 F4EEC10A 		vcmpe.f32	s1, s2
 166 0026 F1EE10FA 		vmrs	APSR_nzcv, FPSCR
 167 002a 01D5     		bpl	.L22
 168              		.loc 1 23 50 view .LVU26
 169 002c B0EE600A 		vmov.f32	s0, s1
 170              	.LVL11:
 171              	.L22:
  24:Core/Src/math_ops.c ****     }
 172              		.loc 1 24 5 discriminator 12 view .LVU27
 173 0030 7047     		bx	lr
 174              		.cfi_endproc
 175              	.LFE3:
 177              		.section	.text.limit_norm,"ax",%progbits
 178              		.align	1
 179              		.global	limit_norm
 180              		.syntax unified
 181              		.thumb
 182              		.thumb_func
 183              		.fpu fpv4-sp-d16
 185              	limit_norm:
 186              	.LVL12:
 187              	.LFB4:
  25:Core/Src/math_ops.c **** /*
  26:Core/Src/math_ops.c **** float roundf(float x){
  27:Core/Src/math_ops.c ****     /// Returns nearest integer ///
  28:Core/Src/math_ops.c ****     return x < 0.0f ? ceilf(x - 0.5f) : floorf(x + 0.5f);
  29:Core/Src/math_ops.c ****     }
  30:Core/Src/math_ops.c ****   */
  31:Core/Src/math_ops.c **** void limit_norm(float *x, float *y, float limit){
 188              		.loc 1 31 49 is_stmt 1 view -0
 189              		.cfi_startproc
 190              		@ args = 0, pretend = 0, frame = 0
 191              		@ frame_needed = 0, uses_anonymous_args = 0
 192              		.loc 1 31 49 is_stmt 0 view .LVU29
 193 0000 38B5     		push	{r3, r4, r5, lr}
 194              	.LCFI0:
 195              		.cfi_def_cfa_offset 16
 196              		.cfi_offset 3, -16
 197              		.cfi_offset 4, -12
 198              		.cfi_offset 5, -8
 199              		.cfi_offset 14, -4
 200 0002 2DED028B 		vpush.64	{d8}
 201              	.LCFI1:
 202              		.cfi_def_cfa_offset 24
 203              		.cfi_offset 80, -24
 204              		.cfi_offset 81, -20
 205 0006 0546     		mov	r5, r0
 206 0008 0C46     		mov	r4, r1
ARM GAS  /tmp/ccai17pm.s 			page 5


 207 000a B0EE408A 		vmov.f32	s16, s0
  32:Core/Src/math_ops.c ****     /// Scales the lenght of vector (x, y) to be <= limit ///
  33:Core/Src/math_ops.c ****     float norm = sqrtf(*x * *x + *y * *y);
 208              		.loc 1 33 5 is_stmt 1 view .LVU30
 209              		.loc 1 33 24 is_stmt 0 view .LVU31
 210 000e 90ED000A 		vldr.32	s0, [r0]
 211              	.LVL13:
 212              		.loc 1 33 27 view .LVU32
 213 0012 20EE000A 		vmul.f32	s0, s0, s0
 214              		.loc 1 33 34 view .LVU33
 215 0016 D1ED007A 		vldr.32	s15, [r1]
 216              		.loc 1 33 37 view .LVU34
 217 001a 67EEA77A 		vmul.f32	s15, s15, s15
 218              		.loc 1 33 18 view .LVU35
 219 001e 30EE270A 		vadd.f32	s0, s0, s15
 220 0022 FFF7FEFF 		bl	sqrtf
 221              	.LVL14:
  34:Core/Src/math_ops.c ****     if(norm > limit){
 222              		.loc 1 34 5 is_stmt 1 view .LVU36
 223              		.loc 1 34 7 is_stmt 0 view .LVU37
 224 0026 B4EEC80A 		vcmpe.f32	s0, s16
 225 002a F1EE10FA 		vmrs	APSR_nzcv, FPSCR
 226 002e 0FDD     		ble	.L29
  35:Core/Src/math_ops.c ****         *x = *x * limit/norm;
 227              		.loc 1 35 9 is_stmt 1 view .LVU38
 228              		.loc 1 35 14 is_stmt 0 view .LVU39
 229 0030 D5ED007A 		vldr.32	s15, [r5]
 230              		.loc 1 35 17 view .LVU40
 231 0034 67EE887A 		vmul.f32	s15, s15, s16
 232              		.loc 1 35 24 view .LVU41
 233 0038 87EE807A 		vdiv.f32	s14, s15, s0
 234              		.loc 1 35 12 view .LVU42
 235 003c 85ED007A 		vstr.32	s14, [r5]
  36:Core/Src/math_ops.c ****         *y = *y * limit/norm;
 236              		.loc 1 36 9 is_stmt 1 view .LVU43
 237              		.loc 1 36 14 is_stmt 0 view .LVU44
 238 0040 D4ED007A 		vldr.32	s15, [r4]
 239              		.loc 1 36 17 view .LVU45
 240 0044 27EE888A 		vmul.f32	s16, s15, s16
 241              	.LVL15:
 242              		.loc 1 36 24 view .LVU46
 243 0048 C8EE007A 		vdiv.f32	s15, s16, s0
 244              		.loc 1 36 12 view .LVU47
 245 004c C4ED007A 		vstr.32	s15, [r4]
 246              	.L29:
  37:Core/Src/math_ops.c ****         }
  38:Core/Src/math_ops.c ****     }
 247              		.loc 1 38 5 view .LVU48
 248 0050 BDEC028B 		vldm	sp!, {d8}
 249              	.LCFI2:
 250              		.cfi_restore 80
 251              		.cfi_restore 81
 252              		.cfi_def_cfa_offset 16
 253 0054 38BD     		pop	{r3, r4, r5, pc}
 254              		.loc 1 38 5 view .LVU49
 255              		.cfi_endproc
 256              	.LFE4:
ARM GAS  /tmp/ccai17pm.s 			page 6


 258              		.section	.text.limit,"ax",%progbits
 259              		.align	1
 260              		.global	limit
 261              		.syntax unified
 262              		.thumb
 263              		.thumb_func
 264              		.fpu fpv4-sp-d16
 266              	limit:
 267              	.LVL16:
 268              	.LFB5:
  39:Core/Src/math_ops.c ****     
  40:Core/Src/math_ops.c **** void limit(float *x, float min, float max){
 269              		.loc 1 40 43 is_stmt 1 view -0
 270              		.cfi_startproc
 271              		@ args = 0, pretend = 0, frame = 0
 272              		@ frame_needed = 0, uses_anonymous_args = 0
 273              		.loc 1 40 43 is_stmt 0 view .LVU51
 274 0000 10B5     		push	{r4, lr}
 275              	.LCFI3:
 276              		.cfi_def_cfa_offset 8
 277              		.cfi_offset 4, -8
 278              		.cfi_offset 14, -4
 279 0002 2DED028B 		vpush.64	{d8}
 280              	.LCFI4:
 281              		.cfi_def_cfa_offset 16
 282              		.cfi_offset 80, -16
 283              		.cfi_offset 81, -12
 284 0006 0446     		mov	r4, r0
 285 0008 B0EE408A 		vmov.f32	s16, s0
  41:Core/Src/math_ops.c ****     *x = fast_fmaxf(fast_fminf(*x, max), min);
 286              		.loc 1 41 5 is_stmt 1 view .LVU52
 287              		.loc 1 41 10 is_stmt 0 view .LVU53
 288 000c 90ED000A 		vldr.32	s0, [r0]
 289              	.LVL17:
 290              		.loc 1 41 10 view .LVU54
 291 0010 FFF7FEFF 		bl	fast_fminf
 292              	.LVL18:
 293              		.loc 1 41 10 view .LVU55
 294 0014 F0EE480A 		vmov.f32	s1, s16
 295 0018 FFF7FEFF 		bl	fast_fmaxf
 296              	.LVL19:
 297              		.loc 1 41 8 view .LVU56
 298 001c 84ED000A 		vstr.32	s0, [r4]
  42:Core/Src/math_ops.c ****     }
 299              		.loc 1 42 5 view .LVU57
 300 0020 BDEC028B 		vldm	sp!, {d8}
 301              	.LCFI5:
 302              		.cfi_restore 80
 303              		.cfi_restore 81
 304              		.cfi_def_cfa_offset 8
 305              	.LVL20:
 306              		.loc 1 42 5 view .LVU58
 307 0024 10BD     		pop	{r4, pc}
 308              		.loc 1 42 5 view .LVU59
 309              		.cfi_endproc
 310              	.LFE5:
 312              		.section	.text.float_to_uint,"ax",%progbits
ARM GAS  /tmp/ccai17pm.s 			page 7


 313              		.align	1
 314              		.global	float_to_uint
 315              		.syntax unified
 316              		.thumb
 317              		.thumb_func
 318              		.fpu fpv4-sp-d16
 320              	float_to_uint:
 321              	.LVL21:
 322              	.LFB6:
  43:Core/Src/math_ops.c **** 
  44:Core/Src/math_ops.c **** int float_to_uint(float x, float x_min, float x_max, int bits){
 323              		.loc 1 44 63 is_stmt 1 view -0
 324              		.cfi_startproc
 325              		@ args = 0, pretend = 0, frame = 0
 326              		@ frame_needed = 0, uses_anonymous_args = 0
 327              		@ link register save eliminated.
  45:Core/Src/math_ops.c ****     /// Converts a float to an unsigned int, given range and number of bits ///
  46:Core/Src/math_ops.c ****     float span = x_max - x_min;
 328              		.loc 1 46 5 view .LVU61
 329              		.loc 1 46 11 is_stmt 0 view .LVU62
 330 0000 31EE601A 		vsub.f32	s2, s2, s1
 331              	.LVL22:
  47:Core/Src/math_ops.c ****     float offset = x_min;
 332              		.loc 1 47 5 is_stmt 1 view .LVU63
  48:Core/Src/math_ops.c ****     return (int) ((x-offset)*((float)((1<<bits)-1))/span);
 333              		.loc 1 48 5 view .LVU64
 334              		.loc 1 48 21 is_stmt 0 view .LVU65
 335 0004 30EE600A 		vsub.f32	s0, s0, s1
 336              	.LVL23:
 337              		.loc 1 48 41 view .LVU66
 338 0008 0123     		movs	r3, #1
 339 000a 8340     		lsls	r3, r3, r0
 340              		.loc 1 48 48 view .LVU67
 341 000c 013B     		subs	r3, r3, #1
 342              		.loc 1 48 31 view .LVU68
 343 000e 07EE903A 		vmov	s15, r3	@ int
 344 0012 F8EEE77A 		vcvt.f32.s32	s15, s15
 345              		.loc 1 48 29 view .LVU69
 346 0016 60EE277A 		vmul.f32	s15, s0, s15
 347              		.loc 1 48 52 view .LVU70
 348 001a 87EE817A 		vdiv.f32	s14, s15, s2
  49:Core/Src/math_ops.c ****     }
 349              		.loc 1 49 5 view .LVU71
 350 001e FDEEC77A 		vcvt.s32.f32	s15, s14
 351 0022 17EE900A 		vmov	r0, s15	@ int
 352              	.LVL24:
 353              		.loc 1 49 5 view .LVU72
 354 0026 7047     		bx	lr
 355              		.cfi_endproc
 356              	.LFE6:
 358              		.section	.text.uint_to_float,"ax",%progbits
 359              		.align	1
 360              		.global	uint_to_float
 361              		.syntax unified
 362              		.thumb
 363              		.thumb_func
 364              		.fpu fpv4-sp-d16
ARM GAS  /tmp/ccai17pm.s 			page 8


 366              	uint_to_float:
 367              	.LVL25:
 368              	.LFB7:
  50:Core/Src/math_ops.c ****     
  51:Core/Src/math_ops.c ****     
  52:Core/Src/math_ops.c **** float uint_to_float(int x_int, float x_min, float x_max, int bits){
 369              		.loc 1 52 67 is_stmt 1 view -0
 370              		.cfi_startproc
 371              		@ args = 0, pretend = 0, frame = 0
 372              		@ frame_needed = 0, uses_anonymous_args = 0
 373              		@ link register save eliminated.
 374              		.loc 1 52 67 is_stmt 0 view .LVU74
 375 0000 07EE900A 		vmov	s15, r0	@ int
  53:Core/Src/math_ops.c ****     /// converts unsigned int to float, given range and number of bits ///
  54:Core/Src/math_ops.c ****     float span = x_max - x_min;
 376              		.loc 1 54 5 is_stmt 1 view .LVU75
 377              		.loc 1 54 11 is_stmt 0 view .LVU76
 378 0004 70EEC00A 		vsub.f32	s1, s1, s0
 379              	.LVL26:
  55:Core/Src/math_ops.c ****     float offset = x_min;
 380              		.loc 1 55 5 is_stmt 1 view .LVU77
  56:Core/Src/math_ops.c ****     return ((float)x_int)*span/((float)((1<<bits)-1)) + offset;
 381              		.loc 1 56 5 view .LVU78
 382              		.loc 1 56 13 is_stmt 0 view .LVU79
 383 0008 F8EEE77A 		vcvt.f32.s32	s15, s15
 384              		.loc 1 56 26 view .LVU80
 385 000c 67EEA00A 		vmul.f32	s1, s15, s1
 386              	.LVL27:
 387              		.loc 1 56 43 view .LVU81
 388 0010 0123     		movs	r3, #1
 389 0012 8B40     		lsls	r3, r3, r1
 390              		.loc 1 56 50 view .LVU82
 391 0014 013B     		subs	r3, r3, #1
 392              		.loc 1 56 33 view .LVU83
 393 0016 07EE903A 		vmov	s15, r3	@ int
 394 001a F8EEE77A 		vcvt.f32.s32	s15, s15
 395              		.loc 1 56 31 view .LVU84
 396 001e 80EEA77A 		vdiv.f32	s14, s1, s15
  57:Core/Src/math_ops.c ****     }
 397              		.loc 1 57 5 view .LVU85
 398 0022 37EE000A 		vadd.f32	s0, s14, s0
 399              	.LVL28:
 400              		.loc 1 57 5 view .LVU86
 401 0026 7047     		bx	lr
 402              		.cfi_endproc
 403              	.LFE7:
 405              		.section	.text.sin_lut,"ax",%progbits
 406              		.align	1
 407              		.global	sin_lut
 408              		.syntax unified
 409              		.thumb
 410              		.thumb_func
 411              		.fpu fpv4-sp-d16
 413              	sin_lut:
 414              	.LVL29:
 415              	.LFB8:
  58:Core/Src/math_ops.c **** 
ARM GAS  /tmp/ccai17pm.s 			page 9


  59:Core/Src/math_ops.c **** float sin_lut(float theta){
 416              		.loc 1 59 27 is_stmt 1 view -0
 417              		.cfi_startproc
 418              		@ args = 0, pretend = 0, frame = 0
 419              		@ frame_needed = 0, uses_anonymous_args = 0
 420              		.loc 1 59 27 is_stmt 0 view .LVU88
 421 0000 08B5     		push	{r3, lr}
 422              	.LCFI6:
 423              		.cfi_def_cfa_offset 8
 424              		.cfi_offset 3, -8
 425              		.cfi_offset 14, -4
  60:Core/Src/math_ops.c **** 	theta = fmodf(theta, TWO_PI_F);
 426              		.loc 1 60 2 is_stmt 1 view .LVU89
 427              		.loc 1 60 10 is_stmt 0 view .LVU90
 428 0002 DFED0E0A 		vldr.32	s1, .L44
 429 0006 FFF7FEFF 		bl	fmodf
 430              	.LVL30:
  61:Core/Src/math_ops.c **** 	theta = theta<0 ? theta + TWO_PI_F : theta;
 431              		.loc 1 61 2 is_stmt 1 view .LVU91
 432              		.loc 1 61 37 is_stmt 0 view .LVU92
 433 000a B5EEC00A 		vcmpe.f32	s0, #0
 434 000e F1EE10FA 		vmrs	APSR_nzcv, FPSCR
 435 0012 0DD4     		bmi	.L43
 436              	.LVL31:
 437              	.L39:
  62:Core/Src/math_ops.c **** 
  63:Core/Src/math_ops.c **** 	return sin_tab[(int) (LUT_MULT*theta)];
 438              		.loc 1 63 2 is_stmt 1 discriminator 4 view .LVU93
 439              		.loc 1 63 32 is_stmt 0 discriminator 4 view .LVU94
 440 0014 DFED0A7A 		vldr.32	s15, .L44+4
 441 0018 20EE270A 		vmul.f32	s0, s0, s15
 442              	.LVL32:
 443              		.loc 1 63 17 discriminator 4 view .LVU95
 444 001c BDEEC00A 		vcvt.s32.f32	s0, s0
 445              		.loc 1 63 16 discriminator 4 view .LVU96
 446 0020 084B     		ldr	r3, .L44+8
 447 0022 10EE102A 		vmov	r2, s0	@ int
 448 0026 03EB8203 		add	r3, r3, r2, lsl #2
  64:Core/Src/math_ops.c **** }
 449              		.loc 1 64 1 discriminator 4 view .LVU97
 450 002a 93ED000A 		vldr.32	s0, [r3]
 451 002e 08BD     		pop	{r3, pc}
 452              	.LVL33:
 453              	.L43:
  61:Core/Src/math_ops.c **** 	theta = theta<0 ? theta + TWO_PI_F : theta;
 454              		.loc 1 61 37 discriminator 1 view .LVU98
 455 0030 DFED027A 		vldr.32	s15, .L44
 456 0034 30EE270A 		vadd.f32	s0, s0, s15
 457              	.LVL34:
  61:Core/Src/math_ops.c **** 	theta = theta<0 ? theta + TWO_PI_F : theta;
 458              		.loc 1 61 37 discriminator 1 view .LVU99
 459 0038 ECE7     		b	.L39
 460              	.L45:
 461 003a 00BF     		.align	2
 462              	.L44:
 463 003c DB0FC940 		.word	1086918619
 464 0040 83F9A242 		.word	1117976963
ARM GAS  /tmp/ccai17pm.s 			page 10


 465 0044 00000000 		.word	.LANCHOR0
 466              		.cfi_endproc
 467              	.LFE8:
 469              		.section	.text.cos_lut,"ax",%progbits
 470              		.align	1
 471              		.global	cos_lut
 472              		.syntax unified
 473              		.thumb
 474              		.thumb_func
 475              		.fpu fpv4-sp-d16
 477              	cos_lut:
 478              	.LVL35:
 479              	.LFB9:
  65:Core/Src/math_ops.c **** 
  66:Core/Src/math_ops.c **** float cos_lut(float theta){
 480              		.loc 1 66 27 is_stmt 1 view -0
 481              		.cfi_startproc
 482              		@ args = 0, pretend = 0, frame = 0
 483              		@ frame_needed = 0, uses_anonymous_args = 0
 484              		.loc 1 66 27 is_stmt 0 view .LVU101
 485 0000 08B5     		push	{r3, lr}
 486              	.LCFI7:
 487              		.cfi_def_cfa_offset 8
 488              		.cfi_offset 3, -8
 489              		.cfi_offset 14, -4
  67:Core/Src/math_ops.c **** 	return sin_lut(PI_OVER_2_F - theta);
 490              		.loc 1 67 2 is_stmt 1 view .LVU102
 491              		.loc 1 67 9 is_stmt 0 view .LVU103
 492 0002 DFED037A 		vldr.32	s15, .L48
 493 0006 37EEC00A 		vsub.f32	s0, s15, s0
 494              	.LVL36:
 495              		.loc 1 67 9 view .LVU104
 496 000a FFF7FEFF 		bl	sin_lut
 497              	.LVL37:
  68:Core/Src/math_ops.c **** }
 498              		.loc 1 68 1 view .LVU105
 499 000e 08BD     		pop	{r3, pc}
 500              	.L49:
 501              		.align	2
 502              	.L48:
 503 0010 DB0FC93F 		.word	1070141403
 504              		.cfi_endproc
 505              	.LFE9:
 507              		.global	sin_tab
 508              		.section	.rodata.sin_tab,"a"
 509              		.align	2
 510              		.set	.LANCHOR0,. + 0
 513              	sin_tab:
 514 0000 00000000 		.word	0
 515 0004 2975493C 		.word	1011447081
 516 0008 DF6EC93C 		.word	1019834079
 517 000c 6F0E173D 		.word	1024921199
 518 0010 3160493D 		.word	1028218929
 519 0014 8FA97B3D 		.word	1031514511
 520 0018 38F4963D 		.word	1033303096
 521 001c 6B0EB03D 		.word	1034948203
 522 0020 4721C93D 		.word	1036591431
ARM GAS  /tmp/ccai17pm.s 			page 11


 523 0024 5E2EE23D 		.word	1038233182
 524 0028 EC2FFB3D 		.word	1039871980
 525 002c 7F130A3E 		.word	1040847743
 526 0030 698C163E 		.word	1041665129
 527 0034 76FD223E 		.word	1042480502
 528 0038 A5662F3E 		.word	1043293861
 529 003c 97CA3B3E 		.word	1044105879
 530 0040 4A29483E 		.word	1044916554
 531 0044 807D543E 		.word	1045724544
 532 0048 DAC9603E 		.word	1046530522
 533 004c 560E6D3E 		.word	1047334486
 534 0050 F54A793E 		.word	1048136437
 535 0054 3CBD823E 		.word	1048755516
 536 0058 0FD1883E 		.word	1049153807
 537 005c A4DF8E3E 		.word	1049550756
 538 0060 FBE8943E 		.word	1049946363
 539 0064 C4EB9A3E 		.word	1050340292
 540 0068 FFE7A03E 		.word	1050732543
 541 006c FCDEA63E 		.word	1051123452
 542 0070 6CCFAC3E 		.word	1051512684
 543 0074 4EB9B23E 		.word	1051900238
 544 0078 A29CB83E 		.word	1052286114
 545 007c 1878BE3E 		.word	1052669976
 546 0080 B24BC43E 		.word	1053051826
 547 0084 BD18CA3E 		.word	1053431997
 548 0088 ECDDCF3E 		.word	1053810156
 549 008c ED99D53E 		.word	1054185965
 550 0090 614FDB3E 		.word	1054560097
 551 0094 59FAE03E 		.word	1054931545
 552 0098 C39EE63E 		.word	1055301315
 553 009c B038EC3E 		.word	1055668400
 554 00a0 71C9F13E 		.word	1056033137
 555 00a4 5452F73E 		.word	1056395860
 556 00a8 BBD0FC3E 		.word	1056755899
 557 00ac 5322013F 		.word	1057038931
 558 00b0 B2D7033F 		.word	1057216434
 559 00b4 D387063F 		.word	1057392595
 560 00b8 B532093F 		.word	1057567413
 561 00bc 5AD80B3F 		.word	1057740890
 562 00c0 C0780E3F 		.word	1057913024
 563 00c4 4013113F 		.word	1058083648
 564 00c8 82A8133F 		.word	1058252930
 565 00cc DF37163F 		.word	1058420703
 566 00d0 55C1183F 		.word	1058586965
 567 00d4 E5441B3F 		.word	1058751717
 568 00d8 8FC21D3F 		.word	1058914959
 569 00dc 543A203F 		.word	1059076692
 570 00e0 8AAB223F 		.word	1059236746
 571 00e4 DB16253F 		.word	1059395291
 572 00e8 9E7B273F 		.word	1059552158
 573 00ec D3D9293F 		.word	1059707347
 574 00f0 7B312C3F 		.word	1059860859
 575 00f4 ED812E3F 		.word	1060012525
 576 00f8 79CC303F 		.word	1060162681
 577 00fc D00F333F 		.word	1060310992
 578 0100 F14B353F 		.word	1060457457
 579 0104 8481373F 		.word	1060602244
ARM GAS  /tmp/ccai17pm.s 			page 12


 580 0108 E2AF393F 		.word	1060745186
 581 010c 0AD73B3F 		.word	1060886282
 582 0110 FDF63D3F 		.word	1061025533
 583 0114 130F403F 		.word	1061162771
 584 0118 9B20423F 		.word	1061298331
 585 011c 9E29443F 		.word	1061431710
 586 0120 132C463F 		.word	1061563411
 587 0124 0326483F 		.word	1061692931
 588 0128 BD184A3F 		.word	1061820605
 589 012c 9B034C3F 		.word	1061946267
 590 0130 F3E54D3F 		.word	1062069747
 591 0134 16C14F3F 		.word	1062191382
 592 0138 B493513F 		.word	1062310836
 593 013c 745E533F 		.word	1062428276
 594 0140 5721553F 		.word	1062543703
 595 0144 0EDB563F 		.word	1062656782
 596 0148 8F8D583F 		.word	1062768015
 597 014c E3365A3F 		.word	1062876899
 598 0150 B2D75B3F 		.word	1062983602
 599 0154 A4705D3F 		.word	1063088292
 600 0158 69005F3F 		.word	1063190633
 601 015c 5188603F 		.word	1063290961
 602 0160 0C07623F 		.word	1063388940
 603 0164 9A7C633F 		.word	1063484570
 604 0168 A3E9643F 		.word	1063578019
 605 016c 274E663F 		.word	1063669287
 606 0170 7EA9673F 		.word	1063758206
 607 0174 50FC683F 		.word	1063844944
 608 0178 4E456A3F 		.word	1063929166
 609 017c C6856B3F 		.word	1064011206
 610 0180 12BD6C3F 		.word	1064090898
 611 0184 31EB6D3F 		.word	1064168241
 612 0188 23106F3F 		.word	1064243235
 613 018c 412B703F 		.word	1064315713
 614 0190 D93D713F 		.word	1064386009
 615 0194 9D46723F 		.word	1064453789
 616 0198 3546733F 		.word	1064519221
 617 019c 9F3C743F 		.word	1064582303
 618 01a0 3529753F 		.word	1064642869
 619 01a4 9E0C763F 		.word	1064701086
 620 01a8 32E6763F 		.word	1064756786
 621 01ac 9AB6773F 		.word	1064810138
 622 01b0 2C7D783F 		.word	1064860972
 623 01b4 EB39793F 		.word	1064909291
 624 01b8 7CED793F 		.word	1064955260
 625 01bc 39977A3F 		.word	1064998713
 626 01c0 22377B3F 		.word	1065039650
 627 01c4 36CD7B3F 		.word	1065078070
 628 01c8 75597C3F 		.word	1065113973
 629 01cc 87DC7C3F 		.word	1065147527
 630 01d0 1D557D3F 		.word	1065178397
 631 01d4 87C47D3F 		.word	1065206919
 632 01d8 74297E3F 		.word	1065232756
 633 01dc 34857E3F 		.word	1065256244
 634 01e0 77D67E3F 		.word	1065277047
 635 01e4 8E1E7F3F 		.word	1065295502
 636 01e8 295C7F3F 		.word	1065311273
ARM GAS  /tmp/ccai17pm.s 			page 13


 637 01ec EF8F7F3F 		.word	1065324527
 638 01f0 88BA7F3F 		.word	1065335432
 639 01f4 A5DA7F3F 		.word	1065343653
 640 01f8 EDF07F3F 		.word	1065349357
 641 01fc 61FD7F3F 		.word	1065352545
 642 0200 0000803F 		.word	1065353216
 643 0204 23F87F3F 		.word	1065351203
 644 0208 19E77F3F 		.word	1065346841
 645 020c 92CB7F3F 		.word	1065339794
 646 0210 37A67F3F 		.word	1065330231
 647 0214 AF777F3F 		.word	1065318319
 648 0218 AB3E7F3F 		.word	1065303723
 649 021c D2FB7E3F 		.word	1065286610
 650 0220 25AF7E3F 		.word	1065266981
 651 0224 A3587E3F 		.word	1065244835
 652 0228 4DF87D3F 		.word	1065220173
 653 022c 228E7D3F 		.word	1065192994
 654 0230 221A7D3F 		.word	1065163298
 655 0234 4E9C7C3F 		.word	1065131086
 656 0238 A5147C3F 		.word	1065096357
 657 023c 27837B3F 		.word	1065059111
 658 0240 D5E77A3F 		.word	1065019349
 659 0244 57437A3F 		.word	1064977239
 660 0248 0395793F 		.word	1064932611
 661 024c DBDC783F 		.word	1064885467
 662 0250 DF1A783F 		.word	1064835807
 663 0254 B54F773F 		.word	1064783797
 664 0258 B77A763F 		.word	1064729271
 665 025c E59B753F 		.word	1064672229
 666 0260 E5B3743F 		.word	1064612837
 667 0264 B9C2733F 		.word	1064551097
 668 0268 B9C7723F 		.word	1064486841
 669 026c 8BC3713F 		.word	1064420235
 670 0270 31B6703F 		.word	1064351281
 671 0274 029F6F3F 		.word	1064279810
 672 0278 A67E6E3F 		.word	1064205990
 673 027c 1D556D3F 		.word	1064129821
 674 0280 68226C3F 		.word	1064051304
 675 0284 86E66A3F 		.word	1063970438
 676 0288 1FA2693F 		.word	1063887391
 677 028c E353683F 		.word	1063801827
 678 0290 22FD663F 		.word	1063714082
 679 0294 349D653F 		.word	1063623988
 680 0298 1A34643F 		.word	1063531546
 681 029c 22C3623F 		.word	1063437090
 682 02a0 5648613F 		.word	1063340118
 683 02a4 ACC55F3F 		.word	1063241132
 684 02a8 D6395E3F 		.word	1063139798
 685 02ac 7AA55C3F 		.word	1063036282
 686 02b0 9A085B3F 		.word	1062930586
 687 02b4 3563593F 		.word	1062822709
 688 02b8 4AB5573F 		.word	1062712650
 689 02bc 82FF553F 		.word	1062600578
 690 02c0 8E40543F 		.word	1062486158
 691 02c4 637A523F 		.word	1062369891
 692 02c8 B4AB503F 		.word	1062251444
 693 02cc 80D44E3F 		.word	1062130816
ARM GAS  /tmp/ccai17pm.s 			page 14


 694 02d0 6FF54C3F 		.word	1062008175
 695 02d4 280F4B3F 		.word	1061883688
 696 02d8 5C20493F 		.word	1061757020
 697 02dc B329473F 		.word	1061628339
 698 02e0 D42B453F 		.word	1061497812
 699 02e4 1826433F 		.word	1061365272
 700 02e8 7E18413F 		.word	1061230718
 701 02ec B0033F3F 		.word	1061094320
 702 02f0 ABE73C3F 		.word	1060956075
 703 02f4 72C43A3F 		.word	1060815986
 704 02f8 5B99383F 		.word	1060673883
 705 02fc B667363F 		.word	1060530102
 706 0300 DC2E343F 		.word	1060384476
 707 0304 CCEE313F 		.word	1060237004
 708 0308 2FA82F3F 		.word	1060087855
 709 030c 5C5A2D3F 		.word	1059936860
 710 0310 FB052B3F 		.word	1059784187
 711 0314 0DAB283F 		.word	1059629837
 712 0318 9049263F 		.word	1059473808
 713 031c 2EE2233F 		.word	1059316270
 714 0320 9773213F 		.word	1059156887
 715 0324 19FF1E3F 		.word	1058995993
 716 0328 B6841C3F 		.word	1058833590
 717 032c C5031A3F 		.word	1058669509
 718 0330 957D173F 		.word	1058504085
 719 0334 D8F0143F 		.word	1058336984
 720 0338 DD5E123F 		.word	1058168541
 721 033c FCC60F3F 		.word	1057998588
 722 0340 35290D3F 		.word	1057827125
 723 0344 2F860A3F 		.word	1057654319
 724 0348 ECDD073F 		.word	1057480172
 725 034c 6A30053F 		.word	1057304682
 726 0350 AA7D023F 		.word	1057127850
 727 0354 598BFF3E 		.word	1056934745
 728 0358 3012FA3E 		.word	1056576048
 729 035c 8A8EF43E 		.word	1056214666
 730 0360 0803EF3E 		.word	1055851272
 731 0364 096DE93E 		.word	1055485193
 732 0368 DDCDE33E 		.word	1055116765
 733 036c 8525DE3E 		.word	1054745989
 734 0370 4F75D83E 		.word	1054373199
 735 0374 3CBDD23E 		.word	1053998396
 736 0378 FCFBCC3E 		.word	1053621244
 737 037c DF32C73E 		.word	1053242079
 738 0380 3563C13E 		.word	1052861237
 739 0384 5D8ABB3E 		.word	1052478045
 740 0388 47ACB53E 		.word	1052093511
 741 038c 05C5AF3E 		.word	1051706629
 742 0390 84D8A93E 		.word	1051318404
 743 0394 75E5A33E 		.word	1050928501
 744 0398 89EA9D3E 		.word	1050536585
 745 039c 60EA973E 		.word	1050143328
 746 03a0 F7E4913E 		.word	1049748727
 747 03a4 02D98B3E 		.word	1049352450
 748 03a8 CEC7853E 		.word	1048954830
 749 03ac B7627F3E 		.word	1048535735
 750 03b0 F52D733E 		.word	1047735797
ARM GAS  /tmp/ccai17pm.s 			page 15


 751 03b4 B7EE663E 		.word	1046933175
 752 03b8 FDA45A3E 		.word	1046127869
 753 03bc 65534E3E 		.word	1045320549
 754 03c0 F0F9413E 		.word	1044511216
 755 03c4 3D9B353E 		.word	1043700541
 756 03c8 0E32293E 		.word	1042887182
 757 03cc A0C31C3E 		.word	1042072480
 758 03d0 F44F103E 		.word	1041256436
 759 03d4 0AD7033E 		.word	1040439050
 760 03d8 C4B1EE3D 		.word	1039053252
 761 03dc B9A5D53D 		.word	1037411769
 762 03e0 A298BC3D 		.word	1035770018
 763 03e4 1B82A33D 		.word	1034125851
 764 03e8 49658A3D 		.word	1032480073
 765 03ec 6685623D 		.word	1029866854
 766 03f0 D637303D 		.word	1026570198
 767 03f4 F7C7FB3C 		.word	1023133687
 768 03f8 C615973C 		.word	1016534470
 769 03fc 5374C93B 		.word	1003058259
 770 0400 5374C9BB 		.word	3150541907
 771 0404 C61597BC 		.word	3164018118
 772 0408 F7C7FBBC 		.word	3170617335
 773 040c D63730BD 		.word	3174053846
 774 0410 668562BD 		.word	3177350502
 775 0414 49658ABD 		.word	3179963721
 776 0418 1B82A3BD 		.word	3181609499
 777 041c A298BCBD 		.word	3183253666
 778 0420 B9A5D5BD 		.word	3184895417
 779 0424 C4B1EEBD 		.word	3186536900
 780 0428 0AD703BE 		.word	3187922698
 781 042c F44F10BE 		.word	3188740084
 782 0430 A0C31CBE 		.word	3189556128
 783 0434 0E3229BE 		.word	3190370830
 784 0438 3D9B35BE 		.word	3191184189
 785 043c F0F941BE 		.word	3191994864
 786 0440 65534EBE 		.word	3192804197
 787 0444 FDA45ABE 		.word	3193611517
 788 0448 B7EE66BE 		.word	3194416823
 789 044c F52D73BE 		.word	3195219445
 790 0450 B7627FBE 		.word	3196019383
 791 0454 CEC785BE 		.word	3196438478
 792 0458 02D98BBE 		.word	3196836098
 793 045c F7E491BE 		.word	3197232375
 794 0460 60EA97BE 		.word	3197626976
 795 0464 89EA9DBE 		.word	3198020233
 796 0468 75E5A3BE 		.word	3198412149
 797 046c 84D8A9BE 		.word	3198802052
 798 0470 05C5AFBE 		.word	3199190277
 799 0474 47ACB5BE 		.word	3199577159
 800 0478 5D8ABBBE 		.word	3199961693
 801 047c 3563C1BE 		.word	3200344885
 802 0480 DF32C7BE 		.word	3200725727
 803 0484 FCFBCCBE 		.word	3201104892
 804 0488 3CBDD2BE 		.word	3201482044
 805 048c 4F75D8BE 		.word	3201856847
 806 0490 8525DEBE 		.word	3202229637
 807 0494 DDCDE3BE 		.word	3202600413
ARM GAS  /tmp/ccai17pm.s 			page 16


 808 0498 096DE9BE 		.word	3202968841
 809 049c 0803EFBE 		.word	3203334920
 810 04a0 8A8EF4BE 		.word	3203698314
 811 04a4 3012FABE 		.word	3204059696
 812 04a8 598BFFBE 		.word	3204418393
 813 04ac AA7D02BF 		.word	3204611498
 814 04b0 6A3005BF 		.word	3204788330
 815 04b4 ECDD07BF 		.word	3204963820
 816 04b8 2F860ABF 		.word	3205137967
 817 04bc 35290DBF 		.word	3205310773
 818 04c0 FCC60FBF 		.word	3205482236
 819 04c4 DD5E12BF 		.word	3205652189
 820 04c8 D8F014BF 		.word	3205820632
 821 04cc 957D17BF 		.word	3205987733
 822 04d0 C5031ABF 		.word	3206153157
 823 04d4 B6841CBF 		.word	3206317238
 824 04d8 19FF1EBF 		.word	3206479641
 825 04dc 977321BF 		.word	3206640535
 826 04e0 2EE223BF 		.word	3206799918
 827 04e4 904926BF 		.word	3206957456
 828 04e8 0DAB28BF 		.word	3207113485
 829 04ec FB052BBF 		.word	3207267835
 830 04f0 5C5A2DBF 		.word	3207420508
 831 04f4 2FA82FBF 		.word	3207571503
 832 04f8 CCEE31BF 		.word	3207720652
 833 04fc DC2E34BF 		.word	3207868124
 834 0500 B66736BF 		.word	3208013750
 835 0504 5B9938BF 		.word	3208157531
 836 0508 72C43ABF 		.word	3208299634
 837 050c ABE73CBF 		.word	3208439723
 838 0510 B0033FBF 		.word	3208577968
 839 0514 7E1841BF 		.word	3208714366
 840 0518 182643BF 		.word	3208848920
 841 051c D42B45BF 		.word	3208981460
 842 0520 B32947BF 		.word	3209111987
 843 0524 5C2049BF 		.word	3209240668
 844 0528 280F4BBF 		.word	3209367336
 845 052c 6FF54CBF 		.word	3209491823
 846 0530 80D44EBF 		.word	3209614464
 847 0534 B4AB50BF 		.word	3209735092
 848 0538 637A52BF 		.word	3209853539
 849 053c 8E4054BF 		.word	3209969806
 850 0540 82FF55BF 		.word	3210084226
 851 0544 4AB557BF 		.word	3210196298
 852 0548 356359BF 		.word	3210306357
 853 054c 9A085BBF 		.word	3210414234
 854 0550 7AA55CBF 		.word	3210519930
 855 0554 D6395EBF 		.word	3210623446
 856 0558 ACC55FBF 		.word	3210724780
 857 055c 564861BF 		.word	3210823766
 858 0560 22C362BF 		.word	3210920738
 859 0564 1A3464BF 		.word	3211015194
 860 0568 349D65BF 		.word	3211107636
 861 056c 22FD66BF 		.word	3211197730
 862 0570 E35368BF 		.word	3211285475
 863 0574 1FA269BF 		.word	3211371039
 864 0578 86E66ABF 		.word	3211454086
ARM GAS  /tmp/ccai17pm.s 			page 17


 865 057c 68226CBF 		.word	3211534952
 866 0580 1D556DBF 		.word	3211613469
 867 0584 A67E6EBF 		.word	3211689638
 868 0588 029F6FBF 		.word	3211763458
 869 058c 31B670BF 		.word	3211834929
 870 0590 8BC371BF 		.word	3211903883
 871 0594 B9C772BF 		.word	3211970489
 872 0598 B9C273BF 		.word	3212034745
 873 059c E5B374BF 		.word	3212096485
 874 05a0 E59B75BF 		.word	3212155877
 875 05a4 B77A76BF 		.word	3212212919
 876 05a8 B54F77BF 		.word	3212267445
 877 05ac DF1A78BF 		.word	3212319455
 878 05b0 DBDC78BF 		.word	3212369115
 879 05b4 039579BF 		.word	3212416259
 880 05b8 57437ABF 		.word	3212460887
 881 05bc D5E77ABF 		.word	3212502997
 882 05c0 27837BBF 		.word	3212542759
 883 05c4 A5147CBF 		.word	3212580005
 884 05c8 4E9C7CBF 		.word	3212614734
 885 05cc 221A7DBF 		.word	3212646946
 886 05d0 228E7DBF 		.word	3212676642
 887 05d4 4DF87DBF 		.word	3212703821
 888 05d8 A3587EBF 		.word	3212728483
 889 05dc 25AF7EBF 		.word	3212750629
 890 05e0 D2FB7EBF 		.word	3212770258
 891 05e4 AB3E7FBF 		.word	3212787371
 892 05e8 AF777FBF 		.word	3212801967
 893 05ec 37A67FBF 		.word	3212813879
 894 05f0 92CB7FBF 		.word	3212823442
 895 05f4 19E77FBF 		.word	3212830489
 896 05f8 23F87FBF 		.word	3212834851
 897 05fc 000080BF 		.word	3212836864
 898 0600 61FD7FBF 		.word	3212836193
 899 0604 EDF07FBF 		.word	3212833005
 900 0608 A5DA7FBF 		.word	3212827301
 901 060c 88BA7FBF 		.word	3212819080
 902 0610 EF8F7FBF 		.word	3212808175
 903 0614 295C7FBF 		.word	3212794921
 904 0618 8E1E7FBF 		.word	3212779150
 905 061c 77D67EBF 		.word	3212760695
 906 0620 34857EBF 		.word	3212739892
 907 0624 74297EBF 		.word	3212716404
 908 0628 87C47DBF 		.word	3212690567
 909 062c 1D557DBF 		.word	3212662045
 910 0630 87DC7CBF 		.word	3212631175
 911 0634 75597CBF 		.word	3212597621
 912 0638 36CD7BBF 		.word	3212561718
 913 063c 22377BBF 		.word	3212523298
 914 0640 39977ABF 		.word	3212482361
 915 0644 7CED79BF 		.word	3212438908
 916 0648 EB3979BF 		.word	3212392939
 917 064c 2C7D78BF 		.word	3212344620
 918 0650 9AB677BF 		.word	3212293786
 919 0654 32E676BF 		.word	3212240434
 920 0658 9E0C76BF 		.word	3212184734
 921 065c 352975BF 		.word	3212126517
ARM GAS  /tmp/ccai17pm.s 			page 18


 922 0660 9F3C74BF 		.word	3212065951
 923 0664 354673BF 		.word	3212002869
 924 0668 9D4672BF 		.word	3211937437
 925 066c D93D71BF 		.word	3211869657
 926 0670 412B70BF 		.word	3211799361
 927 0674 23106FBF 		.word	3211726883
 928 0678 31EB6DBF 		.word	3211651889
 929 067c 12BD6CBF 		.word	3211574546
 930 0680 C6856BBF 		.word	3211494854
 931 0684 4E456ABF 		.word	3211412814
 932 0688 50FC68BF 		.word	3211328592
 933 068c 7EA967BF 		.word	3211241854
 934 0690 274E66BF 		.word	3211152935
 935 0694 A3E964BF 		.word	3211061667
 936 0698 9A7C63BF 		.word	3210968218
 937 069c 0C0762BF 		.word	3210872588
 938 06a0 518860BF 		.word	3210774609
 939 06a4 69005FBF 		.word	3210674281
 940 06a8 A4705DBF 		.word	3210571940
 941 06ac B2D75BBF 		.word	3210467250
 942 06b0 E3365ABF 		.word	3210360547
 943 06b4 8F8D58BF 		.word	3210251663
 944 06b8 0EDB56BF 		.word	3210140430
 945 06bc 572155BF 		.word	3210027351
 946 06c0 745E53BF 		.word	3209911924
 947 06c4 B49351BF 		.word	3209794484
 948 06c8 16C14FBF 		.word	3209675030
 949 06cc F3E54DBF 		.word	3209553395
 950 06d0 9B034CBF 		.word	3209429915
 951 06d4 BD184ABF 		.word	3209304253
 952 06d8 032648BF 		.word	3209176579
 953 06dc 132C46BF 		.word	3209047059
 954 06e0 9E2944BF 		.word	3208915358
 955 06e4 9B2042BF 		.word	3208781979
 956 06e8 130F40BF 		.word	3208646419
 957 06ec FDF63DBF 		.word	3208509181
 958 06f0 0AD73BBF 		.word	3208369930
 959 06f4 E2AF39BF 		.word	3208228834
 960 06f8 848137BF 		.word	3208085892
 961 06fc F14B35BF 		.word	3207941105
 962 0700 D00F33BF 		.word	3207794640
 963 0704 79CC30BF 		.word	3207646329
 964 0708 ED812EBF 		.word	3207496173
 965 070c 7B312CBF 		.word	3207344507
 966 0710 D3D929BF 		.word	3207190995
 967 0714 9E7B27BF 		.word	3207035806
 968 0718 DB1625BF 		.word	3206878939
 969 071c 8AAB22BF 		.word	3206720394
 970 0720 543A20BF 		.word	3206560340
 971 0724 8FC21DBF 		.word	3206398607
 972 0728 E5441BBF 		.word	3206235365
 973 072c 55C118BF 		.word	3206070613
 974 0730 DF3716BF 		.word	3205904351
 975 0734 82A813BF 		.word	3205736578
 976 0738 401311BF 		.word	3205567296
 977 073c C0780EBF 		.word	3205396672
 978 0740 5AD80BBF 		.word	3205224538
ARM GAS  /tmp/ccai17pm.s 			page 19


 979 0744 B53209BF 		.word	3205051061
 980 0748 D38706BF 		.word	3204876243
 981 074c B2D703BF 		.word	3204700082
 982 0750 532201BF 		.word	3204522579
 983 0754 BBD0FCBE 		.word	3204239547
 984 0758 5452F7BE 		.word	3203879508
 985 075c 71C9F1BE 		.word	3203516785
 986 0760 B038ECBE 		.word	3203152048
 987 0764 C39EE6BE 		.word	3202784963
 988 0768 59FAE0BE 		.word	3202415193
 989 076c 614FDBBE 		.word	3202043745
 990 0770 ED99D5BE 		.word	3201669613
 991 0774 ECDDCFBE 		.word	3201293804
 992 0778 BD18CABE 		.word	3200915645
 993 077c B24BC4BE 		.word	3200535474
 994 0780 1878BEBE 		.word	3200153624
 995 0784 A29CB8BE 		.word	3199769762
 996 0788 4EB9B2BE 		.word	3199383886
 997 078c 6CCFACBE 		.word	3198996332
 998 0790 FCDEA6BE 		.word	3198607100
 999 0794 FFE7A0BE 		.word	3198216191
 1000 0798 C4EB9ABE 		.word	3197823940
 1001 079c FBE894BE 		.word	3197430011
 1002 07a0 A4DF8EBE 		.word	3197034404
 1003 07a4 0FD188BE 		.word	3196637455
 1004 07a8 3CBD82BE 		.word	3196239164
 1005 07ac F54A79BE 		.word	3195620085
 1006 07b0 560E6DBE 		.word	3194818134
 1007 07b4 DAC960BE 		.word	3194014170
 1008 07b8 807D54BE 		.word	3193208192
 1009 07bc 4A2948BE 		.word	3192400202
 1010 07c0 97CA3BBE 		.word	3191589527
 1011 07c4 A5662FBE 		.word	3190777509
 1012 07c8 76FD22BE 		.word	3189964150
 1013 07cc 698C16BE 		.word	3189148777
 1014 07d0 7F130ABE 		.word	3188331391
 1015 07d4 EC2FFBBD 		.word	3187355628
 1016 07d8 5E2EE2BD 		.word	3185716830
 1017 07dc 4721C9BD 		.word	3184075079
 1018 07e0 6B0EB0BD 		.word	3182431851
 1019 07e4 38F496BD 		.word	3180786744
 1020 07e8 8FA97BBD 		.word	3178998159
 1021 07ec 316049BD 		.word	3175702577
 1022 07f0 6F0E17BD 		.word	3172404847
 1023 07f4 DF6EC9BC 		.word	3167317727
 1024 07f8 297549BC 		.word	3158930729
 1025 07fc 00000000 		.word	0
 1026              		.text
 1027              	.Letext0:
 1028              		.file 2 "/usr/lib/gcc/arm-none-eabi/9.2.1/include/stddef.h"
 1029              		.file 3 "/usr/include/newlib/sys/_types.h"
 1030              		.file 4 "/usr/include/newlib/sys/reent.h"
 1031              		.file 5 "/usr/include/newlib/sys/lock.h"
 1032              		.file 6 "/usr/include/newlib/math.h"
 1033              		.file 7 "Core/Inc/lookup.h"
ARM GAS  /tmp/ccai17pm.s 			page 20

