ARM GAS  /tmp/ccDz2oLX.s 			page 1


   1              		.cpu cortex-m4
   2              		.eabi_attribute 27, 1
   3              		.eabi_attribute 28, 1
   4              		.eabi_attribute 20, 1
   5              		.eabi_attribute 21, 1
   6              		.eabi_attribute 23, 3
   7              		.eabi_attribute 24, 1
   8              		.eabi_attribute 25, 1
   9              		.eabi_attribute 26, 1
  10              		.eabi_attribute 30, 1
  11              		.eabi_attribute 34, 1
  12              		.eabi_attribute 18, 4
  13              		.file	"preference_writer.c"
  14              		.text
  15              	.Ltext0:
  16              		.cfi_sections	.debug_frame
  17              		.section	.text.preference_writer_init,"ax",%progbits
  18              		.align	1
  19              		.global	preference_writer_init
  20              		.arch armv7e-m
  21              		.syntax unified
  22              		.thumb
  23              		.thumb_func
  24              		.fpu fpv4-sp-d16
  26              	preference_writer_init:
  27              	.LVL0:
  28              	.LFB235:
  29              		.file 1 "Core/Src/preference_writer.c"
   1:Core/Src/preference_writer.c **** /*
   2:Core/Src/preference_writer.c ****  * preference_writer.c
   3:Core/Src/preference_writer.c ****  *
   4:Core/Src/preference_writer.c ****  *  Created on: Apr 13, 2020
   5:Core/Src/preference_writer.c ****  *      Author: ben
   6:Core/Src/preference_writer.c ****  */
   7:Core/Src/preference_writer.c **** 
   8:Core/Src/preference_writer.c **** 
   9:Core/Src/preference_writer.c **** #include "preference_writer.h"
  10:Core/Src/preference_writer.c **** #include "flash_writer.h"
  11:Core/Src/preference_writer.c **** #include "user_config.h"
  12:Core/Src/preference_writer.c **** /*
  13:Core/Src/preference_writer.c **** PreferenceWriter::PreferenceWriter(uint32_t sector) {
  14:Core/Src/preference_writer.c ****     writer = new FlashWriter(sector);
  15:Core/Src/preference_writer.c ****     __sector = sector;
  16:Core/Src/preference_writer.c ****     __ready = false;
  17:Core/Src/preference_writer.c **** }
  18:Core/Src/preference_writer.c **** */
  19:Core/Src/preference_writer.c **** 
  20:Core/Src/preference_writer.c **** void preference_writer_init(PreferenceWriter * pr, uint32_t sector){
  30              		.loc 1 20 68 view -0
  31              		.cfi_startproc
  32              		@ args = 0, pretend = 0, frame = 0
  33              		@ frame_needed = 0, uses_anonymous_args = 0
  34              		.loc 1 20 68 is_stmt 0 view .LVU1
  35 0000 38B5     		push	{r3, r4, r5, lr}
  36              	.LCFI0:
  37              		.cfi_def_cfa_offset 16
  38              		.cfi_offset 3, -16
ARM GAS  /tmp/ccDz2oLX.s 			page 2


  39              		.cfi_offset 4, -12
  40              		.cfi_offset 5, -8
  41              		.cfi_offset 14, -4
  42 0002 0446     		mov	r4, r0
  43 0004 0D46     		mov	r5, r1
  21:Core/Src/preference_writer.c **** 	flash_writer_init(&pr->fw, sector);
  44              		.loc 1 21 2 is_stmt 1 view .LVU2
  45 0006 FFF7FEFF 		bl	flash_writer_init
  46              	.LVL1:
  22:Core/Src/preference_writer.c **** 	pr->sector = sector;
  47              		.loc 1 22 2 view .LVU3
  48              		.loc 1 22 13 is_stmt 0 view .LVU4
  49 000a E560     		str	r5, [r4, #12]
  23:Core/Src/preference_writer.c **** }
  50              		.loc 1 23 1 view .LVU5
  51 000c 38BD     		pop	{r3, r4, r5, pc}
  52              		.loc 1 23 1 view .LVU6
  53              		.cfi_endproc
  54              	.LFE235:
  56              		.section	.text.preference_writer_open,"ax",%progbits
  57              		.align	1
  58              		.global	preference_writer_open
  59              		.syntax unified
  60              		.thumb
  61              		.thumb_func
  62              		.fpu fpv4-sp-d16
  64              	preference_writer_open:
  65              	.LVL2:
  66              	.LFB236:
  24:Core/Src/preference_writer.c **** 
  25:Core/Src/preference_writer.c **** 
  26:Core/Src/preference_writer.c **** void preference_writer_open(PreferenceWriter * pr) {
  67              		.loc 1 26 52 is_stmt 1 view -0
  68              		.cfi_startproc
  69              		@ args = 0, pretend = 0, frame = 0
  70              		@ frame_needed = 0, uses_anonymous_args = 0
  71              		.loc 1 26 52 is_stmt 0 view .LVU8
  72 0000 10B5     		push	{r4, lr}
  73              	.LCFI1:
  74              		.cfi_def_cfa_offset 8
  75              		.cfi_offset 4, -8
  76              		.cfi_offset 14, -4
  77 0002 0446     		mov	r4, r0
  27:Core/Src/preference_writer.c ****     flash_writer_open(&pr->fw);
  78              		.loc 1 27 5 is_stmt 1 view .LVU9
  79 0004 FFF7FEFF 		bl	flash_writer_open
  80              	.LVL3:
  28:Core/Src/preference_writer.c ****     pr->ready = true;
  81              		.loc 1 28 5 view .LVU10
  82              		.loc 1 28 15 is_stmt 0 view .LVU11
  83 0008 0123     		movs	r3, #1
  84 000a 2374     		strb	r3, [r4, #16]
  29:Core/Src/preference_writer.c **** }
  85              		.loc 1 29 1 view .LVU12
  86 000c 10BD     		pop	{r4, pc}
  87              		.loc 1 29 1 view .LVU13
  88              		.cfi_endproc
ARM GAS  /tmp/ccDz2oLX.s 			page 3


  89              	.LFE236:
  91              		.section	.text.preference_writer_ready,"ax",%progbits
  92              		.align	1
  93              		.global	preference_writer_ready
  94              		.syntax unified
  95              		.thumb
  96              		.thumb_func
  97              		.fpu fpv4-sp-d16
  99              	preference_writer_ready:
 100              	.LFB237:
  30:Core/Src/preference_writer.c **** 
  31:Core/Src/preference_writer.c **** bool  preference_writer_ready(PreferenceWriter pr) {
 101              		.loc 1 31 52 is_stmt 1 view -0
 102              		.cfi_startproc
 103              		@ args = 20, pretend = 16, frame = 0
 104              		@ frame_needed = 0, uses_anonymous_args = 0
 105              		@ link register save eliminated.
 106 0000 84B0     		sub	sp, sp, #16
 107              	.LCFI2:
 108              		.cfi_def_cfa_offset 16
 109 0002 8DE80F00 		stm	sp, {r0, r1, r2, r3}
  32:Core/Src/preference_writer.c ****     return pr.ready;
 110              		.loc 1 32 5 view .LVU15
  33:Core/Src/preference_writer.c **** }
 111              		.loc 1 33 1 is_stmt 0 view .LVU16
 112 0006 9DF81000 		ldrb	r0, [sp, #16]	@ zero_extendqisi2
 113 000a 04B0     		add	sp, sp, #16
 114              	.LCFI3:
 115              		.cfi_def_cfa_offset 0
 116 000c 7047     		bx	lr
 117              		.cfi_endproc
 118              	.LFE237:
 120              		.section	.text.preference_writer_write_int,"ax",%progbits
 121              		.align	1
 122              		.global	preference_writer_write_int
 123              		.syntax unified
 124              		.thumb
 125              		.thumb_func
 126              		.fpu fpv4-sp-d16
 128              	preference_writer_write_int:
 129              	.LVL4:
 130              	.LFB238:
  34:Core/Src/preference_writer.c **** 
  35:Core/Src/preference_writer.c **** void preference_writer_write_int(int x, int index) {
 131              		.loc 1 35 52 is_stmt 1 view -0
 132              		.cfi_startproc
 133              		@ args = 0, pretend = 0, frame = 0
 134              		@ frame_needed = 0, uses_anonymous_args = 0
 135              		@ link register save eliminated.
  36:Core/Src/preference_writer.c ****     __int_reg[index] = x;
 136              		.loc 1 36 5 view .LVU18
 137              		.loc 1 36 22 is_stmt 0 view .LVU19
 138 0000 014B     		ldr	r3, .L8
 139 0002 43F82100 		str	r0, [r3, r1, lsl #2]
  37:Core/Src/preference_writer.c **** }
 140              		.loc 1 37 1 view .LVU20
 141 0006 7047     		bx	lr
ARM GAS  /tmp/ccDz2oLX.s 			page 4


 142              	.L9:
 143              		.align	2
 144              	.L8:
 145 0008 00000000 		.word	__int_reg
 146              		.cfi_endproc
 147              	.LFE238:
 149              		.section	.text.preference_writer_write_float,"ax",%progbits
 150              		.align	1
 151              		.global	preference_writer_write_float
 152              		.syntax unified
 153              		.thumb
 154              		.thumb_func
 155              		.fpu fpv4-sp-d16
 157              	preference_writer_write_float:
 158              	.LVL5:
 159              	.LFB239:
  38:Core/Src/preference_writer.c **** 
  39:Core/Src/preference_writer.c **** void preference_writer_write_float(float x, int index) {
 160              		.loc 1 39 56 is_stmt 1 view -0
 161              		.cfi_startproc
 162              		@ args = 0, pretend = 0, frame = 0
 163              		@ frame_needed = 0, uses_anonymous_args = 0
 164              		@ link register save eliminated.
  40:Core/Src/preference_writer.c ****     __float_reg[index] = x;
 165              		.loc 1 40 5 view .LVU22
 166              		.loc 1 40 24 is_stmt 0 view .LVU23
 167 0000 024B     		ldr	r3, .L11
 168 0002 03EB8003 		add	r3, r3, r0, lsl #2
 169 0006 83ED000A 		vstr.32	s0, [r3]
  41:Core/Src/preference_writer.c **** }
 170              		.loc 1 41 1 view .LVU24
 171 000a 7047     		bx	lr
 172              	.L12:
 173              		.align	2
 174              	.L11:
 175 000c 00000000 		.word	__float_reg
 176              		.cfi_endproc
 177              	.LFE239:
 179              		.section	.text.preference_writer_flush,"ax",%progbits
 180              		.align	1
 181              		.global	preference_writer_flush
 182              		.syntax unified
 183              		.thumb
 184              		.thumb_func
 185              		.fpu fpv4-sp-d16
 187              	preference_writer_flush:
 188              	.LVL6:
 189              	.LFB240:
  42:Core/Src/preference_writer.c **** 
  43:Core/Src/preference_writer.c **** void preference_writer_flush(PreferenceWriter * pr) {
 190              		.loc 1 43 53 is_stmt 1 view -0
 191              		.cfi_startproc
 192              		@ args = 0, pretend = 0, frame = 0
 193              		@ frame_needed = 0, uses_anonymous_args = 0
 194              		.loc 1 43 53 is_stmt 0 view .LVU26
 195 0000 30B5     		push	{r4, r5, lr}
 196              	.LCFI4:
ARM GAS  /tmp/ccDz2oLX.s 			page 5


 197              		.cfi_def_cfa_offset 12
 198              		.cfi_offset 4, -12
 199              		.cfi_offset 5, -8
 200              		.cfi_offset 14, -4
 201 0002 83B0     		sub	sp, sp, #12
 202              	.LCFI5:
 203              		.cfi_def_cfa_offset 24
 204 0004 0546     		mov	r5, r0
  44:Core/Src/preference_writer.c ****     int offs;
 205              		.loc 1 44 5 is_stmt 1 view .LVU27
  45:Core/Src/preference_writer.c ****     for (offs = 0; offs < 256; offs++) {
 206              		.loc 1 45 5 view .LVU28
 207              	.LVL7:
 208              		.loc 1 45 15 is_stmt 0 view .LVU29
 209 0006 0024     		movs	r4, #0
 210              	.LVL8:
 211              	.L14:
 212              		.loc 1 45 20 is_stmt 1 discriminator 1 view .LVU30
 213              		.loc 1 45 5 is_stmt 0 discriminator 1 view .LVU31
 214 0008 FF2C     		cmp	r4, #255
 215 000a 0ADC     		bgt	.L16
  46:Core/Src/preference_writer.c ****         flash_writer_write_int(pr->fw, offs, __int_reg[offs]);
 216              		.loc 1 46 9 is_stmt 1 discriminator 3 view .LVU32
 217 000c 0F4B     		ldr	r3, .L20
 218 000e 53F82430 		ldr	r3, [r3, r4, lsl #2]
 219 0012 0093     		str	r3, [sp]
 220 0014 2346     		mov	r3, r4
 221 0016 95E80700 		ldm	r5, {r0, r1, r2}
 222 001a FFF7FEFF 		bl	flash_writer_write_int
 223              	.LVL9:
  45:Core/Src/preference_writer.c ****     for (offs = 0; offs < 256; offs++) {
 224              		.loc 1 45 32 discriminator 3 view .LVU33
  45:Core/Src/preference_writer.c ****     for (offs = 0; offs < 256; offs++) {
 225              		.loc 1 45 36 is_stmt 0 discriminator 3 view .LVU34
 226 001e 0134     		adds	r4, r4, #1
 227              	.LVL10:
  45:Core/Src/preference_writer.c ****     for (offs = 0; offs < 256; offs++) {
 228              		.loc 1 45 36 discriminator 3 view .LVU35
 229 0020 F2E7     		b	.L14
 230              	.L16:
  47:Core/Src/preference_writer.c ****     }
  48:Core/Src/preference_writer.c ****     for (; offs < 320; offs++) {
 231              		.loc 1 48 12 is_stmt 1 discriminator 1 view .LVU36
 232              		.loc 1 48 5 is_stmt 0 discriminator 1 view .LVU37
 233 0022 B4F5A07F 		cmp	r4, #320
 234 0026 0DDA     		bge	.L19
  49:Core/Src/preference_writer.c ****         flash_writer_write_float(pr->fw, offs, __float_reg[offs - 256]);
 235              		.loc 1 49 9 is_stmt 1 discriminator 2 view .LVU38
 236              		.loc 1 49 65 is_stmt 0 discriminator 2 view .LVU39
 237 0028 A4F58072 		sub	r2, r4, #256
 238              		.loc 1 49 9 discriminator 2 view .LVU40
 239 002c 084B     		ldr	r3, .L20+4
 240 002e 03EB8203 		add	r3, r3, r2, lsl #2
 241 0032 93ED000A 		vldr.32	s0, [r3]
 242 0036 2346     		mov	r3, r4
 243 0038 95E80700 		ldm	r5, {r0, r1, r2}
 244 003c FFF7FEFF 		bl	flash_writer_write_float
ARM GAS  /tmp/ccDz2oLX.s 			page 6


 245              	.LVL11:
  48:Core/Src/preference_writer.c ****         flash_writer_write_float(pr->fw, offs, __float_reg[offs - 256]);
 246              		.loc 1 48 24 is_stmt 1 discriminator 2 view .LVU41
  48:Core/Src/preference_writer.c ****         flash_writer_write_float(pr->fw, offs, __float_reg[offs - 256]);
 247              		.loc 1 48 28 is_stmt 0 discriminator 2 view .LVU42
 248 0040 0134     		adds	r4, r4, #1
 249              	.LVL12:
  48:Core/Src/preference_writer.c ****         flash_writer_write_float(pr->fw, offs, __float_reg[offs - 256]);
 250              		.loc 1 48 28 discriminator 2 view .LVU43
 251 0042 EEE7     		b	.L16
 252              	.L19:
  50:Core/Src/preference_writer.c ****     }
  51:Core/Src/preference_writer.c ****     pr->ready = false;
 253              		.loc 1 51 5 is_stmt 1 view .LVU44
 254              		.loc 1 51 15 is_stmt 0 view .LVU45
 255 0044 0023     		movs	r3, #0
 256 0046 2B74     		strb	r3, [r5, #16]
  52:Core/Src/preference_writer.c **** }
 257              		.loc 1 52 1 view .LVU46
 258 0048 03B0     		add	sp, sp, #12
 259              	.LCFI6:
 260              		.cfi_def_cfa_offset 12
 261              		@ sp needed
 262 004a 30BD     		pop	{r4, r5, pc}
 263              	.LVL13:
 264              	.L21:
 265              		.loc 1 52 1 view .LVU47
 266              		.align	2
 267              	.L20:
 268 004c 00000000 		.word	__int_reg
 269 0050 00000000 		.word	__float_reg
 270              		.cfi_endproc
 271              	.LFE240:
 273              		.section	.text.preference_writer_load,"ax",%progbits
 274              		.align	1
 275              		.global	preference_writer_load
 276              		.syntax unified
 277              		.thumb
 278              		.thumb_func
 279              		.fpu fpv4-sp-d16
 281              	preference_writer_load:
 282              	.LFB241:
  53:Core/Src/preference_writer.c **** 
  54:Core/Src/preference_writer.c **** void preference_writer_load(PreferenceWriter pr) {
 283              		.loc 1 54 50 is_stmt 1 view -0
 284              		.cfi_startproc
 285              		@ args = 20, pretend = 16, frame = 0
 286              		@ frame_needed = 0, uses_anonymous_args = 0
 287 0000 84B0     		sub	sp, sp, #16
 288              	.LCFI7:
 289              		.cfi_def_cfa_offset 16
 290 0002 38B5     		push	{r3, r4, r5, lr}
 291              	.LCFI8:
 292              		.cfi_def_cfa_offset 32
 293              		.cfi_offset 3, -32
 294              		.cfi_offset 4, -28
 295              		.cfi_offset 5, -24
ARM GAS  /tmp/ccDz2oLX.s 			page 7


 296              		.cfi_offset 14, -20
 297 0004 04AC     		add	r4, sp, #16
 298 0006 84E80F00 		stm	r4, {r0, r1, r2, r3}
  55:Core/Src/preference_writer.c ****     int offs;
 299              		.loc 1 55 5 view .LVU49
  56:Core/Src/preference_writer.c ****     for (offs = 0; offs < 256; offs++) {
 300              		.loc 1 56 5 view .LVU50
 301              	.LVL14:
 302              		.loc 1 56 15 is_stmt 0 view .LVU51
 303 000a 0024     		movs	r4, #0
 304              	.LVL15:
 305              	.L23:
 306              		.loc 1 56 20 is_stmt 1 discriminator 1 view .LVU52
 307              		.loc 1 56 5 is_stmt 0 discriminator 1 view .LVU53
 308 000c FF2C     		cmp	r4, #255
 309 000e 09DC     		bgt	.L25
  57:Core/Src/preference_writer.c ****         __int_reg[offs] = flash_read_int(pr.fw, offs);
 310              		.loc 1 57 9 is_stmt 1 discriminator 3 view .LVU54
 311              		.loc 1 57 27 is_stmt 0 discriminator 3 view .LVU55
 312 0010 2346     		mov	r3, r4
 313 0012 04AA     		add	r2, sp, #16
 314 0014 07CA     		ldm	r2, {r0, r1, r2}
 315 0016 FFF7FEFF 		bl	flash_read_int
 316              	.LVL16:
 317              		.loc 1 57 25 discriminator 3 view .LVU56
 318 001a 0D4B     		ldr	r3, .L29
 319 001c 43F82400 		str	r0, [r3, r4, lsl #2]
  56:Core/Src/preference_writer.c ****     for (offs = 0; offs < 256; offs++) {
 320              		.loc 1 56 32 is_stmt 1 discriminator 3 view .LVU57
  56:Core/Src/preference_writer.c ****     for (offs = 0; offs < 256; offs++) {
 321              		.loc 1 56 36 is_stmt 0 discriminator 3 view .LVU58
 322 0020 0134     		adds	r4, r4, #1
 323              	.LVL17:
  56:Core/Src/preference_writer.c ****     for (offs = 0; offs < 256; offs++) {
 324              		.loc 1 56 36 discriminator 3 view .LVU59
 325 0022 F3E7     		b	.L23
 326              	.L25:
  58:Core/Src/preference_writer.c ****     }
  59:Core/Src/preference_writer.c ****     for(; offs < 320; offs++) {
 327              		.loc 1 59 11 is_stmt 1 discriminator 1 view .LVU60
 328              		.loc 1 59 5 is_stmt 0 discriminator 1 view .LVU61
 329 0024 B4F5A07F 		cmp	r4, #320
 330 0028 0DDA     		bge	.L28
  60:Core/Src/preference_writer.c ****         __float_reg[offs - 256] = flash_read_float(pr.fw, offs);
 331              		.loc 1 60 9 is_stmt 1 discriminator 2 view .LVU62
 332              		.loc 1 60 26 is_stmt 0 discriminator 2 view .LVU63
 333 002a A4F58075 		sub	r5, r4, #256
 334              		.loc 1 60 35 discriminator 2 view .LVU64
 335 002e 2346     		mov	r3, r4
 336 0030 04AA     		add	r2, sp, #16
 337 0032 07CA     		ldm	r2, {r0, r1, r2}
 338 0034 FFF7FEFF 		bl	flash_read_float
 339              	.LVL18:
 340              		.loc 1 60 33 discriminator 2 view .LVU65
 341 0038 064B     		ldr	r3, .L29+4
 342 003a 03EB8503 		add	r3, r3, r5, lsl #2
 343 003e 83ED000A 		vstr.32	s0, [r3]
ARM GAS  /tmp/ccDz2oLX.s 			page 8


  59:Core/Src/preference_writer.c ****         __float_reg[offs - 256] = flash_read_float(pr.fw, offs);
 344              		.loc 1 59 23 is_stmt 1 discriminator 2 view .LVU66
  59:Core/Src/preference_writer.c ****         __float_reg[offs - 256] = flash_read_float(pr.fw, offs);
 345              		.loc 1 59 27 is_stmt 0 discriminator 2 view .LVU67
 346 0042 0134     		adds	r4, r4, #1
 347              	.LVL19:
  59:Core/Src/preference_writer.c ****         __float_reg[offs - 256] = flash_read_float(pr.fw, offs);
 348              		.loc 1 59 27 discriminator 2 view .LVU68
 349 0044 EEE7     		b	.L25
 350              	.L28:
  61:Core/Src/preference_writer.c ****     }
  62:Core/Src/preference_writer.c **** }
 351              		.loc 1 62 1 view .LVU69
 352 0046 BDE83840 		pop	{r3, r4, r5, lr}
 353              	.LCFI9:
 354              		.cfi_restore 14
 355              		.cfi_restore 5
 356              		.cfi_restore 4
 357              		.cfi_restore 3
 358              		.cfi_def_cfa_offset 16
 359              	.LVL20:
 360              		.loc 1 62 1 view .LVU70
 361 004a 04B0     		add	sp, sp, #16
 362              	.LCFI10:
 363              		.cfi_def_cfa_offset 0
 364 004c 7047     		bx	lr
 365              	.L30:
 366 004e 00BF     		.align	2
 367              	.L29:
 368 0050 00000000 		.word	__int_reg
 369 0054 00000000 		.word	__float_reg
 370              		.cfi_endproc
 371              	.LFE241:
 373              		.section	.text.preference_writer_close,"ax",%progbits
 374              		.align	1
 375              		.global	preference_writer_close
 376              		.syntax unified
 377              		.thumb
 378              		.thumb_func
 379              		.fpu fpv4-sp-d16
 381              	preference_writer_close:
 382              	.LVL21:
 383              	.LFB242:
  63:Core/Src/preference_writer.c **** 
  64:Core/Src/preference_writer.c **** void preference_writer_close(PreferenceWriter *pr) {
 384              		.loc 1 64 52 is_stmt 1 view -0
 385              		.cfi_startproc
 386              		@ args = 0, pretend = 0, frame = 0
 387              		@ frame_needed = 0, uses_anonymous_args = 0
 388              		.loc 1 64 52 is_stmt 0 view .LVU72
 389 0000 08B5     		push	{r3, lr}
 390              	.LCFI11:
 391              		.cfi_def_cfa_offset 8
 392              		.cfi_offset 3, -8
 393              		.cfi_offset 14, -4
  65:Core/Src/preference_writer.c ****     pr->ready = false;
 394              		.loc 1 65 5 is_stmt 1 view .LVU73
ARM GAS  /tmp/ccDz2oLX.s 			page 9


 395              		.loc 1 65 15 is_stmt 0 view .LVU74
 396 0002 0022     		movs	r2, #0
 397 0004 0274     		strb	r2, [r0, #16]
  66:Core/Src/preference_writer.c ****     flash_writer_close(&pr->fw);
 398              		.loc 1 66 5 is_stmt 1 view .LVU75
 399 0006 FFF7FEFF 		bl	flash_writer_close
 400              	.LVL22:
  67:Core/Src/preference_writer.c **** }
 401              		.loc 1 67 1 is_stmt 0 view .LVU76
 402 000a 08BD     		pop	{r3, pc}
 403              		.cfi_endproc
 404              	.LFE242:
 406              		.text
 407              	.Letext0:
 408              		.file 2 "/usr/lib/gcc/arm-none-eabi/9.2.1/include/stdint.h"
 409              		.file 3 "Drivers/CMSIS/Include/core_cm4.h"
 410              		.file 4 "Drivers/CMSIS/Device/ST/STM32F4xx/Include/system_stm32f4xx.h"
 411              		.file 5 "Drivers/STM32F4xx_HAL_Driver/Inc/stm32f4xx_hal.h"
 412              		.file 6 "Core/Inc/flash_writer.h"
 413              		.file 7 "Core/Inc/preference_writer.h"
 414              		.file 8 "Core/Inc/user_config.h"
ARM GAS  /tmp/ccDz2oLX.s 			page 10

